(dp1
S'systematic'
p2
I3753
sS'foul'
p3
I5179
sS'del.'
p4
I3490
sS'four'
p5
I497
sS'jihad'
p6
I3491
sS'spiders'
p7
I5180
sS'railing'
p8
I3492
sS'centimeter'
p9
I5182
sS'marching'
p10
I3493
sS'looking'
p11
I1169
sS'granting'
p12
I5183
sS'eligible'
p13
I1581
sS'electricity'
p14
I2704
sS'refunding'
p15
I2213
sS'lore'
p16
I5185
sS'lord'
p17
I5186
sS'hormone'
p18
I5187
sS'battles'
p19
I7689
sS'45.3'
p20
I5188
sS'45.2'
p21
I5189
sS'regional'
p22
I1582
sS'dell'
p23
I2705
sS'appropriation'
p24
I5190
sS'yellow'
p25
I5191
sS'stabbed'
p26
I5193
sS'bringing'
p27
I5194
sS'*t*-6'
p28
I3494
sS'*t*-7'
p29
I3495
sS'*t*-4'
p30
I498
sS'*t*-5'
p31
I2706
sS'*t*-2'
p32
I40
sS'*t*-3'
p33
I103
sS'*t*-1'
p34
I17
sS'wednesday'
p35
I642
sS'*t*-8'
p36
I3496
sS'*t*-9'
p37
I3497
sS'straight'
p38
I2288
sS'knell'
p39
I5197
sS'ornamental'
p40
I5198
sS'charter'
p41
I5199
sS'infringed'
p42
I5200
sS'tired'
p43
I3498
sS'miller'
p44
I3499
sS'preface'
p45
I5201
sS'frederick'
p46
I6853
sS'270'
p47
I3537
sS'second'
p48
I789
sS'gorman'
p49
I3500
sS'single-a'
p50
I5204
sS'14.53'
p51
I5205
sS'errors'
p52
I5207
sS'semicircular'
p53
I5208
sS'thunder'
p54
I5209
sS'contributed'
p55
I1400
sS'fingers'
p56
I5210
sS'bonuses'
p57
I5211
sS'designing'
p58
I5212
sS'resilient'
p59
I5213
sS'increasing'
p60
I687
sS'specialist'
p61
I1583
sS'<END>'
p62
I1
sS'hero'
p63
I3501
sS'dahl'
p64
I3502
sS'reporter'
p65
I3503
sS'intentioned'
p66
I5214
sS'here'
p67
I499
sS'reported'
p68
I279
sS'chassis'
p69
I2707
sS'china'
p70
I423
sS'auctioned'
p71
I2708
sS'cult'
p72
I5215
sS'borrowers'
p73
I5216
sS'cyclical'
p74
I5217
sS'substance'
p75
I2214
sS'elaborate'
p76
I1402
sS'climbed'
p77
I2215
sS'reports'
p78
I688
sS'controversy'
p79
I2709
sS'sino-u.s.'
p80
I3504
sS'military'
p81
I1245
sS'cancellation'
p82
I3505
sS'criticism'
p83
I3578
sS'golden'
p84
I5219
sS'recession-inspired'
p85
I5220
sS'explained'
p86
I3506
sS'lengthen'
p87
I5221
sS'replace'
p88
I1856
sS'brought'
p89
I1857
sS'beneficiaries'
p90
I5222
sS'stern'
p91
I5223
sS'unit'
p92
I295
sS'opponents'
p93
I2710
sS'derivatives'
p94
I5224
sS'cheating'
p95
I1132
sS'dna'
p96
I5225
sS'spoke'
p97
I5226
sS'best-selling'
p98
I5227
sS'angier'
p99
I5228
sS'occupying'
p100
I5229
sS'symphony'
p101
I5230
sS'music'
p102
I3507
sS'telegraph'
p103
I1584
sS'passport'
p104
I5231
sS'strike'
p105
I942
sS'until'
p106
I284
sS'b.a.t'
p107
I3508
sS'cutbacks'
p108
I1858
sS'standardized'
p109
I1403
sS'mired'
p110
I3509
sS'successful'
p111
I1859
sS'brings'
p112
I5233
sS'holt'
p113
I5234
sS'whirling'
p114
I5235
sS'hurt'
p115
I1133
sS'99'
p116
I2711
sS'glass'
p117
I1421
sS'90'
p118
I859
sS'93'
p119
I5238
sS'hold'
p120
I1585
sS'95'
p121
I5239
sS'circumstances'
p122
I5240
sS'locked'
p123
I5241
sS'dreadful'
p124
I7205
sS'unaffiliated'
p125
I5242
sS'huppert'
p126
I5243
sS'pursue'
p127
I1586
sS'sweeten'
p128
I5244
sS'plunged'
p129
I1860
sS'rulings'
p130
I3510
sS'itself'
p131
I1528
sS'revenues'
p132
I5245
sS'example'
p133
I397
sS'food-industry'
p134
I5246
sS'phrase'
p135
I7265
sS'unjust'
p136
I5247
sS'household'
p137
I2713
sS'organized'
p138
I2714
sS'currency'
p139
I1587
sS'caution'
p140
I5248
sS'reviewing'
p141
I5249
sS'want'
p142
I398
sS'counseling'
p143
I3513
sS'reprove'
p144
I5250
sS'51.6'
p145
I5251
sS'absolute'
p146
I5252
sS'complaining'
p147
I5253
sS'travel'
p148
I2217
sS'damage'
p149
I3032
sS'coca-cola'
p150
I6059
sS'machine'
p151
I1404
sS'how'
p152
I457
sS'hot'
p153
I2248
sS'guigal'
p154
I5256
sS'significance'
p155
I5257
sS'77.6'
p156
I5258
sS'beauty'
p157
I2715
sS'outlawed'
p158
I5259
sS'shores'
p159
I5260
sS'wrong'
p160
I1892
sS'quips'
p161
I5261
sS'sentencing'
p162
I5262
sS'promotion'
p163
I1056
sS'types'
p164
I1861
sS'handelsbanken'
p165
I5263
sS'512'
p166
I5687
sS'effective'
p167
I1588
sS'helsinki'
p168
I5264
sS'wins'
p169
I5645
sS'attracts'
p170
I5266
sS'revolt'
p171
I5267
sS'headquarters'
p172
I1405
sS'scoffs'
p173
I5268
sS'lasalle'
p174
I5269
sS'cigarettes'
p175
I1862
sS'keeps'
p176
I3518
sS'democratic'
p177
I1406
sS'backdrop'
p178
I5270
sS'wine'
p179
I500
sS'restriction'
p180
I3643
sS'smaby'
p181
I3520
sS'welcomed'
p182
I3521
sS'dreamed'
p183
I5272
sS'arbitrage-related'
p184
I5273
sS'misdemeanor'
p185
I3522
sS'vary'
p186
I3523
sS'renaissance-style'
p187
I5274
sS'321,000'
p188
I5275
sS'stockpiles'
p189
I2716
sS'fidelity'
p190
I5277
sS'f.h.'
p191
I5278
sS'ex-dividend'
p192
I5279
sS'fit'
p193
I2717
sS'rankings'
p194
I5281
sS'dramatic'
p195
I4522
sS'stevens'
p196
I3524
sS'auditors'
p197
I5282
sS'secede'
p198
I5283
sS'mouth-up'
p199
I5284
sS'easier'
p200
I1863
sS'undercut'
p201
I5285
sS'126.1'
p202
I5286
sS'lambert'
p203
I1864
sS'slate'
p204
I5288
sS'elementary'
p205
I7158
sS'aspersions'
p206
I5289
sS'effects'
p207
I2718
sS'877,663'
p208
I5290
sS'velcro'
p209
I5291
sS'schools'
p210
I1246
sS'uttering'
p211
I5292
sS'low-tech'
p212
I5293
sS'silver'
p213
I2719
sS'structural'
p214
I2720
sS'represents'
p215
I2721
sS'fetching'
p216
I6061
sS'debut'
p217
I3525
sS'crops'
p218
I2722
sS'development'
p219
I493
sS'financial'
p220
I182
sS'series'
p221
I733
sS'250,000'
p222
I5297
sS'near-limit'
p223
I5298
sS'397'
p224
I5299
sS'2,500'
p225
I2218
sS'substantially'
p226
I1407
sS'cathedral'
p227
I5300
sS'message'
p228
I2965
sS'whip'
p229
I5301
sS'120,000'
p230
I5302
sS'waive'
p231
I5304
sS'mason'
p232
I2220
sS'semiconductor'
p233
I5305
sS'encourage'
p234
I2221
sS'dsm'
p235
I2723
sS'heavy-duty'
p236
I5306
sS'engineer'
p237
I5307
sS'foundation'
p238
I2222
sS'md.'
p239
I5308
sS'clarence'
p240
I5309
sS'assured'
p241
I3526
sS'noriega'
p242
I5310
sS'threatened'
p243
I1408
sS'otero'
p244
I3361
sS'grapes'
p245
I3528
sS'estimate'
p246
I1865
sS'universally'
p247
I5311
sS'competes'
p248
I2724
sS'bates'
p249
I5312
sS'26,000'
p250
I6069
sS'silicon'
p251
I3529
sS'shipped'
p252
I1866
sS'leapt'
p253
I6070
sS'behemoth'
p254
I7724
sS'1970s'
p255
I3530
sS'r.'
p256
I689
sS'nigel'
p257
I5316
sS'dailies'
p258
I3531
sS'unfilled'
p259
I5317
sS'shopped'
p260
I5318
sS'delmont'
p261
I5319
sS'179'
p262
I3532
sS'177'
p263
I5320
sS'176'
p264
I5321
sS'175'
p265
I5322
sS'170'
p266
I5323
sS'carson'
p267
I5324
sS'service'
p268
I296
sS'similarly'
p269
I2726
sS'vargas'
p270
I2834
sS'lawsuits'
p271
I3533
sS'needed'
p272
I734
sS'mind-boggling'
p273
I5326
sS'master'
p274
I2727
sS'listed'
p275
I1247
sS'hypothetical'
p276
I5327
sS'bitter'
p277
I3534
sS'ranging'
p278
I5328
sS'jovanovich'
p279
I5329
sS'rewards'
p280
I3535
sS'collapse'
p281
I2728
sS'geneva'
p282
I5330
sS'predictably'
p283
I5331
sS'expunged'
p284
I5332
sS'wisdom'
p285
I3536
sS'rectified'
p286
I5333
sS'predictable'
p287
I5334
sS'unfair-trade'
p288
I5335
sS'tires'
p289
I5202
sS'outlay'
p290
I5337
sS'showed'
p291
I944
sS'tree'
p292
I3538
sS'rusty'
p293
I3539
sS'nations'
p294
I690
sS'project'
p295
I1589
sS'aftereffects'
p296
I5338
sS'feeling'
p297
I3540
sS'acquisition'
p298
I501
sS'secilia'
p299
I7930
sS'willingness'
p300
I5339
sS'eight-person'
p301
I6131
sS'boston'
p302
I604
sS'spectrum'
p303
I5341
sS'untrained'
p304
I5342
sS'index-options'
p305
I5343
sS'dozen'
p306
I2223
sS'affairs'
p307
I1248
sS'422.5'
p308
I5345
sS'hub'
p309
I5347
sS'person'
p310
I860
sS'responsible'
p311
I2835
sS'floating-rate'
p312
I2729
sS'causing'
p313
I1867
sS'absorbed'
p314
I2730
sS'amusing'
p315
I3543
sS'doors'
p316
I5348
sS'shipments'
p317
I1590
sS'committing'
p318
I5349
sS'transactions'
p319
I507
sS'looming'
p320
I2731
sS'letter'
p321
I1591
sS'organization'
p322
I999
sS'retaining'
p323
I3544
sS'drought'
p324
I1410
sS'bradford'
p325
I5351
sS'stock-price'
p326
I5352
sS'*t*-249'
p327
I6085
sS'antitrust'
p328
I861
sS'professor'
p329
I1411
sS'trading-company'
p330
I5353
sS'leinonen'
p331
I5354
sS'circulations'
p332
I5355
sS'mating'
p333
I5356
sS'confederation'
p334
I3546
sS'saying'
p335
I735
sS'bomb'
p336
I5357
sS'meetings'
p337
I1592
sS'nominated'
p338
I3547
sS'times-stock'
p339
I3548
sS'gauge'
p340
I3549
sS'participate'
p341
I3550
sS'hungary'
p342
I2225
sS'tempted'
p343
I5358
sS'bramalea'
p344
I3551
sS'eliminated'
p345
I1978
sS'692'
p346
I5360
sS'orleans'
p347
I1249
sS'touches'
p348
I5361
sS'aerojet'
p349
I5362
sS'clicked'
p350
I5363
sS'headline'
p351
I5364
sS'cousins'
p352
I5874
sS'bust'
p353
I5365
sS'interbank'
p354
I2733
sS'f-series'
p355
I5366
sS'cougar'
p356
I5367
sS'bush'
p357
I252
sS'rick'
p358
I3553
sS'rich'
p359
I2734
sS'tire-kickers'
p360
I5368
sS'mend'
p361
I5369
sS'pickens'
p362
I2226
sS'rice'
p363
I3554
sS'plate'
p364
I3555
sS'klein'
p365
I5370
sS'inoperative'
p366
I5371
sS'denounce'
p367
I3556
sS'psychiatric'
p368
I2227
sS'pocket'
p369
I5372
sS'cushion'
p370
I5373
sS'altogether'
p371
I3557
sS'volatility'
p372
I571
sS'jaguar'
p373
I2735
sS'basham'
p374
I2736
sS'low-ball'
p375
I5374
sS'accordance'
p376
I7029
sS'patch'
p377
I5376
sS'thirtysomething'
p378
I5377
sS'three-year'
p379
I3558
sS'18,444'
p380
I5378
sS'release'
p381
I3559
sS'27-year'
p382
I5379
sS'saul'
p383
I5381
sS'respond'
p384
I2737
sS'traverse'
p385
I5382
sS'leasing'
p386
I5383
sS'disaster'
p387
I5384
sS'fair'
p388
I2738
sS'peripheral'
p389
I2739
sS'widget'
p390
I1401
sS'bled'
p391
I5385
sS'result'
p392
I502
sS'fail'
p393
I2228
sS'resigned'
p394
I1593
sS'liquid-nitrogen'
p395
I5386
sS'best'
p396
I945
sS'avert'
p397
I5387
sS'87-store'
p398
I5388
sS'pressured'
p399
I2740
sS'ambitions'
p400
I5389
sS'above-market'
p401
I5390
sS'ackerman'
p402
I2229
sS'irs'
p403
I736
sS'rings'
p404
I3560
sS'pressures'
p405
I1412
sS'score'
p406
I5391
sS'occupational'
p407
I3561
sS'ire'
p408
I5392
sS'men'
p409
I1183
sS'parallels'
p410
I3562
sS'extend'
p411
I1453
sS'nature'
p412
I1594
sS'rolled'
p413
I3564
sS'felony'
p414
I3565
sS'authorizing'
p415
I5393
sS'wtd'
p416
I5394
sS'affiliates'
p417
I3566
sS'extent'
p418
I2741
sS'downgrade'
p419
I3567
sS'carbon'
p420
I5396
sS'debt'
p421
I201
sS'planner'
p422
I5397
sS'sacrificing'
p423
I5398
sS'corton-charlemagne'
p424
I5399
sS'country'
p425
I228
sS'62.5'
p426
I3568
sS'heating'
p427
I1413
sS'62.1'
p428
I5400
sS'estates'
p429
I5401
sS'planned'
p430
I791
sS'logic'
p431
I2742
sS'argue'
p432
I1868
sS'asked'
p433
I1030
sS'11.10'
p434
I5402
sS'102'
p435
I4348
sS'250'
p436
I1596
sS'257'
p437
I5404
sS'lighthouse'
p438
I5405
sS'101'
p439
I4581
sS'billing'
p440
I5407
sS'wayland'
p441
I5408
sS'union'
p442
I429
sS'.'
I5
sS'savin'
p443
I2743
sS'much'
p444
I165
sS'stadium'
p445
I1251
sS'privilege'
p446
I3569
sS'counterattack'
p447
I5410
sS'life'
p448
I644
sS'crying'
p449
I6095
sS'eastern'
p450
I1869
sS'worker'
p451
I1870
sS'irving'
p452
I5412
sS'irvine'
p453
I3570
sS'kids'
p454
I2557
sS'chile'
p455
I3571
sS'child'
p456
I2231
sS'worked'
p457
I1415
sS'modern-day'
p458
I5413
sS'internatonal'
p459
I5414
sS'commerce'
p460
I606
sS'presidency'
p461
I2745
sS'excited'
p462
I7928
sS'gerhard'
p463
I5417
sS'played'
p464
I2746
sS'player'
p465
I5418
sS'upscale'
p466
I2747
sS'anticipating'
p467
I5419
sS'campaigning'
p468
I3572
sS'expedited'
p469
I7950
sS'breakfast'
p470
I7038
sS'13.15'
p471
I5420
sS'hong'
p472
I1597
sS'vintages'
p473
I3573
sS'things'
p474
I862
sS'*?*'
p475
I221
sS'format'
p476
I3765
sS'rebellion'
p477
I5422
sS'split'
p478
I2308
sS'elliott'
p479
I5423
sS'principals'
p480
I3575
sS'bid'
p481
I322
sS'european'
p482
I1871
sS'fairly'
p483
I1872
sS'workforce'
p484
I5425
sS'richebourg'
p485
I3576
sS'funding'
p486
I725
sS'reruns'
p487
I2232
sS'ownership'
p488
I1598
sS'5.70'
p489
I5426
sS'adopting'
p490
I7952
sS'tune'
p491
I5428
sS'midsized'
p492
I3577
sS'simulates'
p493
I5429
sS'intrusion'
p494
I5430
sS'r.i.'
p495
I5431
sS'echoed'
p496
I5432
sS'academic'
p497
I2751
sS'quantitative'
p498
I5434
sS'corporate'
p499
I324
sS'blackjack'
p500
I6101
sS'txo'
p501
I5218
sS'spurred'
p502
I2752
sS'capitol'
p503
I3579
sS'financially'
p504
I2233
sS'birmingham'
p505
I5435
sS'plight'
p506
I2753
sS'portrayed'
p507
I5436
sS'succeeding'
p508
I3580
sS'previous'
p509
I572
sS'enters'
p510
I2754
sS'ease'
p511
I1416
sS'had'
p512
I65
sS'macdonald'
p513
I5437
sS'hay'
p514
I5438
sS'collections'
p515
I4314
sS'easy'
p516
I1134
sS'prison'
p517
I2234
sS'manfred'
p518
I5440
sS'east'
p519
I1417
sS'weeklies'
p520
I3581
sS'grandstander'
p521
I5441
sS'municipal'
p522
I1873
sS'elders'
p523
I5442
sS'survival'
p524
I2235
sS'disagreement'
p525
I3582
sS'possible'
p526
I399
sS'possibly'
p527
I1874
sS'50\\/50'
p528
I5444
sS'ratcheting'
p529
I5445
sS'firmed'
p530
I5446
sS'summons'
p531
I5447
sS'desire'
p532
I5448
sS'decried'
p533
I7956
sS'steps'
p534
I2755
sS'malnutrition'
p535
I5451
sS'sebastian'
p536
I6835
sS'attorney'
p537
I1418
sS'right'
p538
I285
sS'old'
p539
I318
sS'creek'
p540
I2757
sS'crowd'
p541
I5453
sS'people'
p542
I177
sS'czech'
p543
I5454
sS'midyear'
p544
I5455
sS'crown'
p545
I3583
sS'consultants'
p546
I3584
sS'insistence'
p547
I5456
sS'221.4'
p548
I5457
sS'mcleod'
p549
I5458
sS'sociology'
p550
I5459
sS'lend-lease'
p551
I5460
sS'for'
p552
I16
sS'bottom'
p553
I2236
sS'p.m.'
p554
I5461
sS'contributing'
p555
I5462
sS'continue'
p556
I792
sS'summoned'
p557
I5463
sS'attorney-client'
p558
I3585
sS'12,252'
p559
I5464
sS'6,000'
p560
I3586
sS'rhone'
p561
I5465
sS'defensive'
p562
I2237
sS'losing'
p563
I1252
sS'brokerage'
p564
I1875
sS'manufacturing'
p565
I424
sS'marketers'
p566
I5466
sS'visitors'
p567
I3588
sS'dollars'
p568
I793
sS'rebuffed'
p569
I5467
sS'entrants'
p570
I5468
sS'solihull'
p571
I5469
sS'annualized'
p572
I3589
sS'stoked'
p573
I5470
sS'hamstrung'
p574
I7043
sS'lacked'
p575
I5472
sS'slightly'
p576
I1135
sS'nixon'
p577
I573
sS'raised'
p578
I881
sS'pre-tax'
p579
I5473
sS'facility'
p580
I1876
sS'maxwell'
p581
I2239
sS'marshall'
p582
I1877
sS'sol'
p583
I5474
sS'son'
p584
I3590
sS'administer'
p585
I5475
sS'respectable'
p586
I5476
sS'magazines'
p587
I5477
sS'raises'
p588
I1975
sS'papua-new'
p589
I3592
sS'octogenarians'
p590
I5478
sS'reducing'
p591
I2240
sS'defendants'
p592
I1878
sS'appropriators'
p593
I3593
sS'authorizes'
p594
I5479
sS'despised'
p595
I5480
sS'support'
p596
I503
sS'constantly'
p597
I2758
sS'knowing'
p598
I6026
sS'one-time'
p599
I1253
sS'orville'
p600
I5481
sS'joseph'
p601
I2759
sS'authorized'
p602
I5482
sS'resulted'
p603
I3594
sS'overhead'
p604
I3100
sS'halls'
p605
I5483
sS'happy'
p606
I5485
sS'offer'
p607
I216
sS'tigers'
p608
I5486
sS'robertson'
p609
I7958
sS'nov.'
p610
I425
sS'inside'
p611
I5488
sS'devices'
p612
I1599
sS'univest'
p613
I5489
sS'unanimous'
p614
I5490
sS'five-inch'
p615
I5491
sS'examples'
p616
I5492
sS'150'
p617
I1687
sS'hurley'
p618
I7851
sS'155'
p619
I3595
sS'implications'
p620
I4085
sS'disclosing'
p621
I5493
sS'fattened'
p622
I5494
sS'proven'
p623
I5495
sS"''"
p624
I21
sS'exist'
p625
I3596
sS'accounting'
p626
I5497
sS'tooth'
p627
I7046
sS'negotiations'
p628
I2761
sS'posting'
p629
I3597
sS'solicitation'
p630
I5499
sS'floor'
p631
I864
sS'actor'
p632
I5500
sS'flood'
p633
I5501
sS'pasadena'
p634
I5502
sS'role'
p635
I947
sS'ambitious'
p636
I5503
sS'jenkins'
p637
I5504
sS'roll'
p638
I3598
sS"'s"
p639
I14
sS'models'
p640
I1879
sS'taurus'
p641
I3600
sS'devon'
p642
I3601
sS'invested'
p643
I1420
sS'rolling'
p644
I3602
sS"'m"
p645
I794
sS'reorganization'
p646
I1254
sS'98'
p647
I2712
sS'good-natured'
p648
I5507
sS'time'
p649
I132
sS'push'
p650
I2241
sS'disaffiliation'
p651
I5508
sS'*t*-225'
p652
I5509
sS'*t*-226'
p653
I5510
sS'*t*-227'
p654
I5511
sS'cincinnati'
p655
I3603
sS'*t*-221'
p656
I5512
sS'chain'
p657
I1255
sS'*t*-223'
p658
I5513
sS'resources'
p659
I1149
sS'*t*-228'
p660
I5514
sS'*t*-229'
p661
I5515
sS'theaters'
p662
I5516
sS'gut-wrenching'
p663
I5517
sS'hole'
p664
I5518
sS'92'
p665
I5519
sS'poore'
p666
I2242
sS'plainclothes'
p667
I5520
sS'bribed'
p668
I3604
sS'platitudes'
p669
I5521
sS'oversight'
p670
I5522
sS'revenue-desperate'
p671
I5523
sS'pursuant'
p672
I3370
sS'choice'
p673
I3607
sS'92.9'
p674
I5524
sS'alcoholics'
p675
I5525
sS'drexel'
p676
I865
sS'servicing'
p677
I5526
sS'stays'
p678
I5527
sS'corp.'
p679
I84
sS'exact'
p680
I2243
sS'minute'
p681
I2762
sS'fetal-tissue'
p682
I1256
sS'leave'
p683
I1422
sS'solved'
p684
I3608
sS'settle'
p685
I1423
sS'erasures'
p686
I5528
sS'counterrevolutionary'
p687
I5529
sS'team'
p688
I645
sS'speculation'
p689
I737
sS'famed'
p690
I5530
sS'unaware'
p691
I5531
sS'prevent'
p692
I1031
sS'findings'
p693
I1257
sS'16\\/32'
p694
I5532
sS'sigh'
p695
I5533
sS'boca'
p696
I2763
sS'sign'
p697
I948
sS'lengthened'
p698
I5534
sS'roof'
p699
I5536
sS'reaffirmed'
p700
I5537
sS'corazon'
p701
I5539
sS'cleanliness'
p702
I5540
sS'jeopardy'
p703
I5541
sS'current'
p704
I325
sS'falling'
p705
I1880
sS'ground'
p706
I2216
sS'boost'
p707
I1032
sS'l.p.'
p708
I5542
sS'drafted'
p709
I5543
sS'jury'
p710
I3609
sS'vanderbilt'
p711
I3610
sS'17.95'
p712
I3611
sS'address'
p713
I2764
sS'alone'
p714
I1601
sS'along'
p715
I1881
sS'dwindling'
p716
I5544
sS'terrence'
p717
I5545
sS'brilliant'
p718
I3612
sS'studied'
p719
I2245
sS'funded'
p720
I1882
sS'studies'
p721
I2765
sS'reclaim'
p722
I5546
sS'respite'
p723
I6122
sS'proportion'
p724
I7051
sS'prefer'
p725
I5548
sS'bloody'
p726
I5549
sS'sky'
p727
I5550
sS'overruns'
p728
I7053
sS'opposes'
p729
I5552
sS'working'
p730
I738
sS'positive'
p731
I1602
sS'angry'
p732
I3614
sS'opposed'
p733
I1258
sS'films'
p734
I2766
sS'sonnett'
p735
I2767
sS'newsweekly'
p736
I5553
sS'prosecutor'
p737
I5554
sS'high-speed'
p738
I5555
sS'introducing'
p739
I3615
sS'``'
p740
I19
sS'afford'
p741
I5556
sS'apparent'
p742
I5557
sS'everywhere'
p743
I3617
sS'virtue'
p744
I3618
sS'riders'
p745
I5558
sS'behalf'
p746
I3619
sS'valued'
p747
I1424
sS'originally'
p748
I3620
sS'abortion'
p749
I739
sS'believes'
p750
I1136
sS'109.73'
p751
I5561
sS'vega'
p752
I5562
sS'values'
p753
I3621
sS'stature'
p754
I3622
sS'believed'
p755
I1603
sS'mirrors'
p756
I5564
sS'stoll'
p757
I3623
sS'unveiled'
p758
I4254
sS'allowed'
p759
I1259
sS'235'
p760
I5566
sS'imhoff'
p761
I5567
sS'47.125'
p762
I3624
sS'winter'
p763
I5568
sS'divided'
p764
I2246
sS'immune'
p765
I3625
sS's.'
p766
I2247
sS'elephant'
p767
I5569
sS'coleman'
p768
I949
sS'five-year'
p769
I3626
sS'explorer'
p770
I5570
sS'rigors'
p771
I5571
sS'spot'
p772
I2768
sS'applications'
p773
I1883
sS'date'
p774
I1884
sS'such'
p775
I105
sS'acceptances'
p776
I3627
sS'data'
p777
I740
sS'lids'
p778
I5573
sS'disagreeable'
p779
I5574
sS'wtvj'
p780
I5575
sS'stress'
p781
I5576
sS'natural'
p782
I1885
sS'sectors'
p783
I5577
sS'yielding'
p784
I1886
sS'si'
p785
I5578
sS'so'
p786
I111
sS'truce'
p787
I2769
sS'pulled'
p788
I5579
sS'6.44'
p789
I5580
sS'unsolicited'
p790
I5581
sS'6.40'
p791
I3628
sS'transplants'
p792
I1425
sS'sell-off'
p793
I5582
sS'years'
p794
I89
sS'professors'
p795
I2770
sS'course'
p796
I1260
sS'episodes'
p797
I5583
sS'fasteners'
p798
I4297
sS'tache'
p799
I2771
sS'shudders'
p800
I5585
sS'three-sevenths'
p801
I5587
sS'avid'
p802
I5588
sS'disconnect'
p803
I5589
sS'lackluster'
p804
I5590
sS'jim'
p805
I3067
sS'troubles'
p806
I1887
sS'louisville'
p807
I3514
sS'*-94'
p808
I5592
sS'107.03'
p809
I5276
sS'*-96'
p810
I5594
sS'*-97'
p811
I5595
sS'*-90'
p812
I5596
sS'*-91'
p813
I5597
sS'*-92'
p814
I5598
sS'*-93'
p815
I5599
sS'suspension'
p816
I362
sS'troubled'
p817
I1426
sS'decades'
p818
I2772
sS'*-99'
p819
I5600
sS'limbo'
p820
I5601
sS'coincidental'
p821
I5602
sS'modestly'
p822
I2249
sS'matches'
p823
I5603
sS'nation'
p824
I378
sS'records'
p825
I1888
sS'subordinated'
p826
I3078
sS'matched'
p827
I1889
sS'materialized'
p828
I5604
sS'pealing'
p829
I5605
sS'establishing'
p830
I5606
sS'fabian'
p831
I5607
sS'quarter'
p832
I337
sS'repaired'
p833
I5608
sS'28.53'
p834
I5609
sS'square'
p835
I3629
sS'honduras'
p836
I5610
sS'disputado'
p837
I5611
sS'growths'
p838
I4330
sS'sponsor'
p839
I3630
sS'entering'
p840
I3631
sS'disasters'
p841
I5613
sS'container'
p842
I5614
sS'colorliner'
p843
I5616
sS'abide'
p844
I5617
sS'seriously'
p845
I3089
sS'investigation'
p846
I1890
sS'formula'
p847
I5618
sS'superiors'
p848
I5619
sS'worthiness'
p849
I5620
sS'stieglitz'
p850
I3632
sS'sheffield'
p851
I5621
sS'million'
p852
I35
sS'incentives'
p853
I5622
sS'possibility'
p854
I3633
sS'quite'
p855
I2251
sS'lucrative'
p856
I3095
sS'besides'
p857
I3096
sS'sanderoff'
p858
I5624
sS'remainder'
p859
I2773
sS'diagram'
p860
I5625
sS'training'
p861
I1427
sS'haut-brion'
p862
I5626
sS'programming'
p863
I1891
sS'modest'
p864
I3515
sS'spending'
p865
I379
sS'massive'
p866
I4030
sS'126,000'
p867
I5628
sS'war-rationed'
p868
I5629
sS'symmetry'
p869
I5630
sS'ignored'
p870
I5631
sS'clause'
p871
I1428
sS'mayland'
p872
I7981
sS'parkinson'
p873
I5633
sS'one'
p874
I74
sS'reopen'
p875
I2774
sS'punishable'
p876
I3635
sS'spanish'
p877
I5634
sS'vote'
p878
I1607
sS'open'
p879
I1033
sS'city'
p880
I309
sS'wrath'
p881
I5635
sS'structured'
p882
I5636
sS'indicate'
p883
I2775
sS'2'
I363
sS'realization'
p884
I3636
sS'structures'
p885
I2776
sS'cite'
p886
I5637
sS'williams'
p887
I1034
sS'*u*'
p888
I18
sS'154,240,000'
p889
I3637
sS'proving'
p890
I2777
sS'2,099'
p891
I5638
sS'specialists'
p892
I1429
sS'clannish'
p893
I5639
sS'representing'
p894
I2461
sS'inventor'
p895
I5641
sS'conn.'
p896
I2252
sS'depressed'
p897
I5642
sS'rival'
p898
I2253
sS'rankin'
p899
I5643
sS'gaja'
p900
I5644
sS'future'
p901
I400
sS'financings'
p902
I1893
sS'youths'
p903
I5646
sS'prospect'
p904
I3638
sS'addressing'
p905
I5648
sS'illness'
p906
I2778
sS'san'
p907
I574
sS'turned'
p908
I1261
sS'argument'
p909
I3639
sS'sad'
p910
I5649
sS'prestigious'
p911
I2779
sS'say'
p912
I125
sS'financier'
p913
I5650
sS'stanley'
p914
I1608
sS'allen'
p915
I3640
sS'borough'
p916
I3641
sS'saw'
p917
I1894
sS'r.d.'
p918
I7498
sS'319.75'
p919
I5651
sS'inches'
p920
I6144
sS'coliseum'
p921
I5653
sS'instructed'
p922
I5654
sS'note'
p923
I950
sS'goodman'
p924
I5655
sS'jefferson'
p925
I5656
sS'take'
p926
I172
sS'wanting'
p927
I5657
sS'high-technology'
p928
I5658
sS'butterfly'
p929
I5659
sS'altered'
p930
I5660
sS'opposite'
p931
I5661
sS'ascendency'
p932
I5662
sS'knew'
p933
I2780
sS'buffet'
p934
I3642
sS'backlogs'
p935
I5663
sS'361,376'
p936
I7066
sS'printed'
p937
I2781
sS'remarks'
p938
I5665
sS'inserted'
p939
I5666
sS'pages'
p940
I1262
sS'average'
p941
I234
sS'drive'
p942
I4447
sS'cushioned'
p943
I5667
sS'occidental'
p944
I5668
sS'federal'
p945
I142
sS'link'
p946
I5669
sS'19.50'
p947
I5670
sS'30,000'
p948
I2479
sS'salt'
p949
I5671
sS'liquidity'
p950
I1610
sS'laws'
p951
I1263
sS'twinned'
p952
I5672
sS'madison'
p953
I1895
sS'surplus'
p954
I5673
sS'merit'
p955
I3644
sS'bright'
p956
I3645
sS'steelmakers'
p957
I2782
sS'-lrb-'
p958
I95
sS'scarce'
p959
I5674
sS'soviets'
p960
I1264
sS'16,072'
p961
I5675
sS'slow'
p962
I795
sS'ensembles'
p963
I5676
sS'*t*-110'
p964
I5677
sS'liberation'
p965
I5678
sS'going'
p966
I646
sS'equipped'
p967
I5679
sS'outrage'
p968
I5680
sS'index-arbitrage'
p969
I1430
sS'congressional'
p970
I1265
sS'dispute'
p971
I2487
sS'directed'
p972
I5681
sS'beatles'
p973
I3646
sS'explosion'
p974
I5682
sS'psychiatrist'
p975
I5683
sS'assistant'
p976
I1431
sS'condemning'
p977
I5684
sS'recombinant'
p978
I5685
sS'prime'
p979
I1611
sS'red-carpet'
p980
I5686
sS'artist'
p981
I1137
sS'worried'
p982
I1896
sS'barclays'
p983
I5688
sS'roger'
p984
I5689
sS'therapies'
p985
I5690
sS'bombs'
p986
I5691
sS'liable'
p987
I2783
sS'worries'
p988
I2784
sS'where'
p989
I286
sS'vision'
p990
I5692
sS'*t*-208'
p991
I5693
sS'*t*-206'
p992
I5694
sS'*t*-207'
p993
I5695
sS'breathtaking'
p994
I5696
sS'*t*-205'
p995
I5697
sS'mifflin'
p996
I5698
sS'*t*-203'
p997
I5699
sS'*t*-200'
p998
I5700
sS'cup-tote'
p999
I5701
sS'top-level'
p1000
I5702
sS'surgery'
p1001
I3647
sS'budding'
p1002
I5703
sS'receipt'
p1003
I5704
sS'jumped'
p1004
I1612
sS'representatives'
p1005
I5705
sS'vaccines'
p1006
I5706
sS'bureau'
p1007
I3648
sS'sable'
p1008
I5707
sS'affecting'
p1009
I5708
sS'jobs'
p1010
I866
sS'trs-80'
p1011
I5709
sS'marvin'
p1012
I3649
sS'screen'
p1013
I2254
sS'faded'
p1014
I5710
sS'supermarket'
p1015
I5711
sS'concentrate'
p1016
I3650
sS'awards'
p1017
I5712
sS'cedric'
p1018
I5713
sS'spark'
p1019
I3651
sS'concentrated'
p1020
I3652
sS'oust'
p1021
I5714
sS'many'
p1022
I99
sS'1:30'
p1023
I5715
sS'workplace'
p1024
I5716
sS'horsham'
p1025
I5717
sS'expression'
p1026
I5718
sS'yearly'
p1027
I5719
sS'loveliest'
p1028
I5720
sS'bhutto'
p1029
I5721
sS'donoghue'
p1030
I5722
sS'lsi'
p1031
I7904
sS'twin'
p1032
I5723
sS'amphobiles'
p1033
I5724
sS'comeback'
p1034
I5725
sS'considers'
p1035
I2785
sS'cleared'
p1036
I7020
sS'combines'
p1037
I3653
sS'teddy'
p1038
I5726
sS'stretch'
p1039
I5727
sS'west'
p1040
I1138
sS'locally'
p1041
I5728
sS'airlines'
p1042
I1613
sS'klauser'
p1043
I2786
sS'combined'
p1044
I1432
sS'prototype'
p1045
I5729
sS'wants'
p1046
I952
sS'enable'
p1047
I5730
sS'sogo-shosha'
p1048
I5731
sS'thousand'
p1049
I5732
sS'formed'
p1050
I1614
sS'readings'
p1051
I5733
sS'centerpiece'
p1052
I5734
sS'rekindled'
p1053
I5735
sS'tightened'
p1054
I5736
sS'former'
p1055
I607
sS'wherewithal'
p1056
I5737
sS'isabelle'
p1057
I5738
sS'consultant'
p1058
I2787
sS'polls'
p1059
I5739
sS'engineering'
p1060
I1533
sS'hayes'
p1061
I5740
sS'intimately'
p1062
I5741
sS'policies'
p1063
I1897
sS'newspaper'
p1064
I830
sS'situation'
p1065
I867
sS'engaged'
p1066
I4578
sS'speedway'
p1067
I3656
sS'anti-deficiency'
p1068
I5742
sS'limping'
p1069
I5743
sS'13.8'
p1070
I2788
sS'spooked'
p1071
I5744
sS'13.5'
p1072
I5745
sS'technology'
p1073
I1036
sS'13.1'
p1074
I5747
sS'cost-sharing'
p1075
I3657
sS'expenditures'
p1076
I5748
sS'exxon-owned'
p1077
I5749
sS'mobster'
p1078
I5750
sS'sterling'
p1079
I1898
sS'managements'
p1080
I5751
sS'edged'
p1081
I3658
sS'singapore'
p1082
I2255
sS'boosted'
p1083
I1266
sS'carillons'
p1084
I5752
sS'wpp'
p1085
I5753
sS'allocation'
p1086
I3659
sS'autions'
p1087
I7078
sS'harris'
p1088
I3661
sS'321'
p1089
I5754
sS'tracking'
p1090
I5755
sS'60,000'
p1091
I3662
sS'marubeni'
p1092
I5756
sS'vacant'
p1093
I5757
sS'customized'
p1094
I5758
sS'peculiarities'
p1095
I5759
sS'costs'
p1096
I479
sS'trains'
p1097
I5760
sS'genie'
p1098
I3663
sS'summer'
p1099
I1433
sS'214'
p1100
I5761
sS'212'
p1101
I5762
sS'210'
p1102
I5763
sS'being'
p1103
I326
sS'rest'
p1104
I1615
sS'recycled'
p1105
I5764
sS'roederer'
p1106
I3664
sS'reimbursed'
p1107
I6162
sS'14.43'
p1108
I5766
sS'n.j.-based'
p1109
I5767
sS'michio'
p1110
I5768
sS'underline'
p1111
I5769
sS'city-owned'
p1112
I5181
sS'briefings'
p1113
I5770
sS'bricks'
p1114
I5294
sS'contesting'
p1115
I5772
sS'prominently'
p1116
I5773
sS'family-planning'
p1117
I5774
sS'aspects'
p1118
I5775
sS'around'
p1119
I365
sS'sums'
p1120
I3665
sS'vinken'
p1121
I3666
sS'landrieu'
p1122
I5776
sS'unveil'
p1123
I3667
sS'dark'
p1124
I5777
sS'traffic'
p1125
I5778
sS'insist'
p1126
I2144
sS'world'
p1127
I297
sS'sensational'
p1128
I5779
sS'intel'
p1129
I3668
sS'exploit'
p1130
I7083
sS'discarded'
p1131
I5780
sS'direct-mail'
p1132
I3670
sS'11.57'
p1133
I5781
sS'offenders'
p1134
I3671
sS'beverly'
p1135
I2790
sS'yquem'
p1136
I3672
sS'assertions'
p1137
I5782
sS'12.52'
p1138
I5783
sS'satisfactory'
p1139
I3673
sS'sewing-machine'
p1140
I5784
sS'superintendent'
p1141
I5785
sS'existing'
p1142
I2850
sS'conditional'
p1143
I3674
sS'lebanon'
p1144
I5786
sS'strindberg'
p1145
I5787
sS'thinks'
p1146
I2791
sS'scandals'
p1147
I5788
sS'tote'
p1148
I5789
sS'memories'
p1149
I3675
sS'tube'
p1150
I5790
sS'30-minute'
p1151
I5791
sS'396,000'
p1152
I5792
sS'exit'
p1153
I5793
sS'juggernaut'
p1154
I5794
sS'ddb'
p1155
I5795
sS'917'
p1156
I5796
sS'913'
p1157
I5798
sS'refer'
p1158
I5799
sS'unsuccessfully'
p1159
I3676
sS'schaefer'
p1160
I5800
sS'contingent'
p1161
I4661
sS'power'
p1162
I458
sS'industrialized'
p1163
I5801
sS'leadership'
p1164
I3677
sS'thailand'
p1165
I2257
sS'stone'
p1166
I2792
sS'retraced'
p1167
I5802
sS'package'
p1168
I741
sS'industry'
p1169
I235
sS'favorite'
p1170
I3678
sS'meal'
p1171
I3679
sS'five-cent'
p1172
I5803
sS'biondi-santi'
p1173
I3680
sS'act'
p1174
I504
sS'imsai'
p1175
I5804
sS'mean'
p1176
I2080
sS'berger'
p1177
I5806
sS'fundraising'
p1178
I5807
sS'image'
p1179
I2258
sS'motor-home'
p1180
I5808
sS'homeless'
p1181
I953
sS'parties'
p1182
I1783
sS'tie-breaking'
p1183
I5810
sS'angola'
p1184
I5496
sS'valuable'
p1185
I5812
sS'technically'
p1186
I5813
sS'wadsworth'
p1187
I5814
sS'her'
p1188
I183
sS'philadelphia'
p1189
I1434
sS'h.n.'
p1190
I5815
sS'meals'
p1191
I5816
sS'brazilian'
p1192
I2259
sS'complete'
p1193
I1617
sS'verbatim'
p1194
I5817
sS'home-market'
p1195
I5818
sS'brain'
p1196
I5819
sS'abating'
p1197
I7091
sS'elimination'
p1198
I5821
sS'technologies'
p1199
I5822
sS'with'
p1200
I30
sS'buying'
p1201
I505
sS'pull'
p1202
I3681
sS'october'
p1203
I178
sS'monopoly'
p1204
I5823
sS'722'
p1205
I5824
sS'eight-count'
p1206
I5825
sS'dirty'
p1207
I5826
sS'politically'
p1208
I5827
sS'agree'
p1209
I2793
sS'rust'
p1210
I5828
sS'detailed'
p1211
I2794
sS'gone'
p1212
I2795
sS'ad'
p1213
I349
sS'ag'
p1214
I3682
sS'migrate'
p1215
I5829
sS'certain'
p1216
I426
sS'am'
p1217
I3683
sS'watches'
p1218
I1899
sS'an'
p1219
I41
sS'behest'
p1220
I5831
sS'as'
p1221
I29
sS'at'
p1222
I28
sS'follow-up'
p1223
I5832
sS'watched'
p1224
I5833
sS'long-tenured'
p1225
I5834
sS'discontinuing'
p1226
I7092
sS'graduate'
p1227
I3684
sS'tight'
p1228
I2796
sS'beverage'
p1229
I5836
sS'2,700'
p1230
I5837
sS'congress'
p1231
I217
sS'refunded'
p1232
I5838
sS'a.'
p1233
I608
sS'gifts'
p1234
I5839
sS'planners'
p1235
I3685
sS'tricky'
p1236
I5840
sS'nagano'
p1237
I3687
sS'mass'
p1238
I2797
sS'nelson'
p1239
I5842
sS'original'
p1240
I2260
sS'waiver'
p1241
I5844
sS'mcfarlan'
p1242
I5845
sS'7.15'
p1243
I5846
sS'sci'
p1244
I2798
sS'consider'
p1245
I1267
sS'caused'
p1246
I954
sS'ceramic'
p1247
I5847
sS'unitholders'
p1248
I5848
sS'tours'
p1249
I3688
sS'fairness'
p1250
I3689
sS'directorship'
p1251
I5849
sS'reasoning'
p1252
I3690
sS'causes'
p1253
I2261
sS'andrea'
p1254
I5850
sS'tv'
p1255
I1037
sS'to'
p1256
I7
sS'midwest'
p1257
I1619
sS'case'
p1258
I348
sS'calif.'
p1259
I691
sS'appointment'
p1260
I2263
sS'returned'
p1261
I1900
sS'90-cent-an-hour'
p1262
I5851
sS'puzzled'
p1263
I5852
sS'1,500'
p1264
I2799
sS'floated'
p1265
I5853
sS'baton'
p1266
I3691
sS'jerritts'
p1267
I3692
sS'showings'
p1268
I5854
sS'condition'
p1269
I3693
sS'veselich'
p1270
I5855
sS'`'
I1140
sS'moines'
p1271
I2800
sS'laying'
p1272
I5856
sS'joined'
p1273
I2801
sS't.'
p1274
I1111
sS'harry'
p1275
I5857
sS'small'
p1276
I229
sS'sank'
p1277
I5858
sS'198'
p1278
I5859
sS'195'
p1279
I2802
sS'penalties'
p1280
I2264
sS'paso'
p1281
I5860
sS'190'
p1282
I3694
sS'past'
p1283
I366
sS'dingell'
p1284
I1378
sS'product-design'
p1285
I5862
sS'pass'
p1286
I2265
sS'assaults'
p1287
I5863
sS'96.4'
p1288
I5864
sS'investment'
p1289
I158
sS'money-center'
p1290
I5865
sS'richard'
p1291
I797
sS'clock'
p1292
I5866
sS'section'
p1293
I742
sS'burgundy'
p1294
I3696
sS'3436.58'
p1295
I5867
sS'scientists'
p1296
I1435
sS'consumer-driven'
p1297
I5868
sS'training-wage'
p1298
I5869
sS'contrast'
p1299
I3697
sS'full'
p1300
I609
sS'lobbyist'
p1301
I5870
sS"creator's"
p1302
I5871
sS'hours'
p1303
I1436
sS'citicorp'
p1304
I3699
sS'november'
p1305
I1141
sS'legend'
p1306
I5872
sS'mudslinging'
p1307
I5873
sS'riviera'
p1308
I3701
sS'compliance'
p1309
I2803
sS'experience'
p1310
I1142
sS'prior'
p1311
I2266
sS'social'
p1312
I1620
sS'action'
p1313
I401
sS'luck'
p1314
I5875
sS'220.45'
p1315
I5876
sS'hart-scott-rodino'
p1316
I5877
sS'240'
p1317
I4371
sS'via'
p1318
I743
sS'followed'
p1319
I1038
sS'reclaimed'
p1320
I5878
sS'wine-making'
p1321
I7322
sS'marriages'
p1322
I3703
sS'pulls'
p1323
I5879
sS'select'
p1324
I5880
sS'attendance'
p1325
I5881
sS'850'
p1326
I5882
sS'objectives'
p1327
I3705
sS'petroleum'
p1328
I1901
sS'unrecognizable'
p1329
I3706
sS'6'
I692
sS'811.9'
p1330
I5883
sS'nederlanden'
p1331
I5884
sS'tissue-transplant'
p1332
I5885
sS'more'
p1333
I57
sS'door'
p1334
I2267
sS'initiated'
p1335
I5886
sS'company'
p1336
I50
sS'enormous'
p1337
I3707
sS'tested'
p1338
I2804
sS'sports-oriented'
p1339
I5887
sS'schweiz'
p1340
I5888
sS'foundations'
p1341
I5889
sS'keeping'
p1342
I2268
sS'kaminski'
p1343
I2269
sS'science'
p1344
I5892
sS'installing'
p1345
I5893
sS'sent'
p1346
I1717
sS'morgan'
p1347
I1621
sS'knocked'
p1348
I5894
sS'male'
p1349
I2270
sS'safe-deposit'
p1350
I5895
sS'beautiful'
p1351
I2271
sS'stated'
p1352
I3709
sS'accept'
p1353
I2805
sS'states'
p1354
I610
sS'salty'
p1355
I5896
sS'sense'
p1356
I1437
sS'gallon'
p1357
I3710
sS'upjohn'
p1358
I1269
sS'huge'
p1359
I868
sS'imminent'
p1360
I2134
sS'hugo'
p1361
I2272
sS'dismissed'
p1362
I2273
sS'top-selling'
p1363
I5900
sS'earnings'
p1364
I272
sS'creature'
p1365
I5901
sS'bretz'
p1366
I3356
sS'seoul'
p1367
I2453
sS'sundays'
p1368
I7303
sS'plane'
p1369
I5905
sS'backyard'
p1370
I5906
sS'pleaded'
p1371
I4162
sS'guber\\/peters'
p1372
I3712
sS'news-american'
p1373
I5908
sS'acquisitions'
p1374
I1143
sS'refuse'
p1375
I3713
sS'tulane'
p1376
I5909
sS'leroy'
p1377
I5910
sS'register'
p1378
I3714
sS'hauling'
p1379
I5911
sS'broadcasting'
p1380
I5912
sS'fundamental'
p1381
I5913
sS'11.5'
p1382
I5914
sS'passages'
p1383
I5916
sS'mexican'
p1384
I5917
sS'car-safety'
p1385
I5918
sS'enhances'
p1386
I5919
sS'itc'
p1387
I5921
sS'trade'
p1388
I149
sS'attitude'
p1389
I3715
sS'paper'
p1390
I333
sS'scott'
p1391
I2806
sS'replies'
p1392
I4945
sS'bulldozers'
p1393
I5922
sS'its'
p1394
I39
sS'492'
p1395
I5923
sS'rapidly'
p1396
I1622
sS'sumitomo'
p1397
I5924
sS'termed'
p1398
I5925
sS'gerald'
p1399
I2807
sS'xiaoping'
p1400
I5926
sS'symptoms'
p1401
I5927
sS'tentatively'
p1402
I1904
sS'skipped'
p1403
I5929
sS'finmeccanica'
p1404
I3716
sS'propose'
p1405
I5930
sS'deliberating'
p1406
I5931
sS'outlawing'
p1407
I5932
sS'chilver'
p1408
I5933
sS'speculate'
p1409
I5934
sS'likeness'
p1410
I5935
sS'designation'
p1411
I5936
sS'always'
p1412
I1039
sS'labeling'
p1413
I5937
sS'repayment'
p1414
I5939
sS'found'
p1415
I506
sS'execs'
p1416
I5940
sS'status'
p1417
I2808
sS'england'
p1418
I459
sS'megabytes'
p1419
I5941
sS'osaka'
p1420
I5942
sS'six-bottle'
p1421
I5943
sS'reduce'
p1422
I869
sS'slowdown'
p1423
I2274
sS'measurement'
p1424
I5944
sS'advertisers'
p1425
I955
sS'operation'
p1426
I3717
sS'morale-damaging'
p1427
I5945
sS'really'
p1428
I956
sS'anxious'
p1429
I7451
sS'psychology'
p1430
I2809
sS'blacks'
p1431
I1623
sS'high-stakes'
p1432
I5946
sS'kensington'
p1433
I5947
sS'research'
p1434
I196
sS'ftc'
p1435
I1905
sS'trudeau'
p1436
I1449
sS'non-callable'
p1437
I5948
sS'feb.'
p1438
I3719
sS'occurs'
p1439
I3720
sS'highway'
p1440
I2275
sS'risen'
p1441
I3721
sS'driver'
p1442
I5949
sS'1920s'
p1443
I3722
sS'sparked'
p1444
I2276
sS'qualify'
p1445
I3723
sS'imagine'
p1446
I5950
sS'rises'
p1447
I5951
sS'producers'
p1448
I1438
sS'owners'
p1449
I2811
sS'retained'
p1450
I5952
sS'machine-gun-toting'
p1451
I5953
sS'castle'
p1452
I5954
sS'exhibited'
p1453
I5955
sS'purhasing'
p1454
I5956
sS'major'
p1455
I253
sS'rooted'
p1456
I5957
sS'slipped'
p1457
I2277
sS'wilder'
p1458
I1270
sS'6.03'
p1459
I5959
sS'number'
p1460
I222
sS'mid-october'
p1461
I5960
sS'kobe'
p1462
I5961
sS'cartilage'
p1463
I6426
sS'differ'
p1464
I5963
sS'heads'
p1465
I1906
sS'guest'
p1466
I5964
sS'jet'
p1467
I2812
sS'introduction'
p1468
I1271
sS'arlington'
p1469
I3725
sS'moderately'
p1470
I3726
sS'litany'
p1471
I5965
sS'kerensky'
p1472
I5966
sS'contra'
p1473
I5968
sS'omnipresent'
p1474
I5969
sS'calculations'
p1475
I5970
sS'essays'
p1476
I5971
sS'implements'
p1477
I5972
sS'relationship'
p1478
I3728
sS'5.92'
p1479
I5973
sS'interviewed'
p1480
I3729
sS'immediate'
p1481
I5974
sS'appreciation'
p1482
I2813
sS'focusing'
p1483
I3730
sS'stifle'
p1484
I5975
sS'grace'
p1485
I2278
sS'polarized'
p1486
I5976
sS'freud'
p1487
I5977
sS'defends'
p1488
I5978
sS'determined'
p1489
I2279
sS'0.99'
p1490
I5979
sS'36-day'
p1491
I5980
sS'1928-33'
p1492
I5981
sS'154.2'
p1493
I5982
sS'fights'
p1494
I5983
sS'beforehand'
p1495
I5984
sS'guarding'
p1496
I5985
sS'vitally'
p1497
I5986
sS'elsevier'
p1498
I5987
sS'wafa'
p1499
I5988
sS'sell'
p1500
I236
sS'spaghetti'
p1501
I6202
sS'self'
p1502
I5989
sS'reliance'
p1503
I1390
sS'also'
p1504
I67
sS'recognizing'
p1505
I5990
sS'internal'
p1506
I1439
sS'ancillary'
p1507
I5991
sS'brace'
p1508
I5992
sS'play'
p1509
I2280
sS'tiphook'
p1510
I6203
sS'canepa'
p1511
I2816
sS'swiftly'
p1512
I2817
sS'83.4'
p1513
I5993
sS'anti-takeover'
p1514
I5994
sS'balkanized'
p1515
I5995
sS'brooklyn'
p1516
I2281
sS'plan'
p1517
I202
sS'accepting'
p1518
I2818
sS'singled'
p1519
I5996
sS'midwesco'
p1520
I5997
sS'toronto-based'
p1521
I3731
sS'seize'
p1522
I3732
sS'sometimes'
p1523
I1041
sS'cover'
p1524
I1907
sS'barred'
p1525
I1022
sS'barrel'
p1526
I3734
sS'tete-a-tete'
p1527
I5999
sS'sluggishness'
p1528
I6001
sS'despise'
p1529
I6002
sS'gold'
p1530
I1042
sS'flirted'
p1531
I6003
sS'midwestern'
p1532
I2819
sS'defended'
p1533
I3735
sS'nasdaq'
p1534
I1908
sS'session'
p1535
I1144
sS'export-oriented'
p1536
I6004
sS'blender'
p1537
I6005
sS'impact'
p1538
I1625
sS'indicator'
p1539
I2820
sS'laurence'
p1540
I6206
sS'writer'
p1541
I2673
sS'failed'
p1542
I744
sS'wayne'
p1543
I3737
sS'equity'
p1544
I728
sS'bernstein'
p1545
I957
sS'indifference'
p1546
I6007
sS'giants'
p1547
I1627
sS'magicians'
p1548
I6008
sS'financial-services'
p1549
I2821
sS'*-6'
p1550
I2979
sS'banned'
p1551
I3738
sS'sunny'
p1552
I6009
sS'radio-station'
p1553
I6010
sS'needham'
p1554
I5109
sS'closely'
p1555
I693
sS'reporters'
p1556
I2822
sS'progressive'
p1557
I6012
sS'cru'
p1558
I6013
sS'cry'
p1559
I6014
sS'tanked'
p1560
I6015
sS'banking'
p1561
I648
sS'coors'
p1562
I6016
sS'river'
p1563
I745
sS'rumored'
p1564
I3739
sS'kalamazoo'
p1565
I6018
sS'set'
p1566
I350
sS'creator'
p1567
I6019
sS'313'
p1568
I6020
sS'bundling'
p1569
I6021
sS'310'
p1570
I3740
sS'byron'
p1571
I3741
sS'sex'
p1572
I3742
sS'see'
p1573
I402
sS'sec'
p1574
I1628
sS'sea'
p1575
I798
sS'institutes'
p1576
I3743
sS'stearn'
p1577
I2823
sS'#'
I649
sS'spirits'
p1578
I6022
sS'negotiator'
p1579
I6674
sS'unsettling'
p1580
I6023
sS'muted'
p1581
I6024
sS'movie'
p1582
I1395
sS'currently'
p1583
I367
sS'diluted'
p1584
I3744
sS'rita'
p1585
I6025
sS'europe'
p1586
I1127
sS'premises'
p1587
I6027
sS'sigler'
p1588
I3745
sS'incident'
p1589
I6028
sS'death'
p1590
I2372
sS'445'
p1591
I6029
sS'dividend'
p1592
I480
sS'delivering'
p1593
I6211
sS'lentjes'
p1594
I2203
sS'prospects'
p1595
I1440
sS'last'
p1596
I98
sS'influential'
p1597
I3748
sS'barely'
p1598
I6031
sS'connection'
p1599
I1909
sS'1.64'
p1600
I5144
sS'scams'
p1601
I6033
sS'long-term'
p1602
I746
sS'let'
p1603
I1629
sS'harpo'
p1604
I6034
sS'approve'
p1605
I1273
sS'healing'
p1606
I6035
sS'load'
p1607
I3749
sS'markdown'
p1608
I2827
sS'underperforming'
p1609
I6036
sS'bell'
p1610
I1028
sS'composting'
p1611
I6038
sS'loan'
p1612
I611
sS'community'
p1613
I1576
sS'agents'
p1614
I3750
sS'church'
p1615
I870
sS'supercomputers'
p1616
I3775
sS'third-highest'
p1617
I6041
sS'belt'
p1618
I2828
sS'publishing'
p1619
I575
sS'monthly'
p1620
I1853
sS'acceptance'
p1621
I2284
sS'evoking'
p1622
I6042
sS'convicted'
p1623
I2829
sS'proprietor'
p1624
I6043
sS'citations'
p1625
I2830
sS'incentive-backed'
p1626
I6044
sS'assassinated'
p1627
I6045
sS'firm'
p1628
I254
sS'raced'
p1629
I6046
sS'champion'
p1630
I3751
sS'325,000'
p1631
I6047
sS'fire'
p1632
I2285
sS'fund'
p1633
I427
sS'races'
p1634
I6049
sS'representative'
p1635
I2286
sS'hallwood'
p1636
I3489
sS'insiders'
p1637
I3754
sS'towns'
p1638
I3755
sS'handling'
p1639
I2287
sS'hostess'
p1640
I6050
sS'judicial'
p1641
I1910
sS'enrollment'
p1642
I5196
sS'expanded'
p1643
I1911
sS'budget'
p1644
I650
sS'receive'
p1645
I959
sS'pressed'
p1646
I3756
sS'evaluating'
p1647
I6051
sS'owed'
p1648
I1913
sS'pound'
p1649
I1442
sS'voa'
p1650
I2831
sS'backing'
p1651
I3757
sS'calculator'
p1652
I6052
sS'motors'
p1653
I1914
sS'decline'
p1654
I576
sS'36'
p1655
I6053
sS'vow'
p1656
I6054
sS'centennial'
p1657
I6055
sS'triple'
p1658
I6056
sS'vos'
p1659
I6057
sS'*-109'
p1660
I7125
sS'2003\\/2007'
p1661
I5255
sS'chase'
p1662
I1443
sS'price-support'
p1663
I6060
sS'funny'
p1664
I1915
sS'barney'
p1665
I2832
sS'fibers'
p1666
I2833
sS'savings-and-loan'
p1667
I4260
sS'shorter'
p1668
I6062
sS'philadelphia-based'
p1669
I5280
sS'virtually'
p1670
I1630
sS'survey'
p1671
I694
sS'*-107'
p1672
I6063
sS'240-page'
p1673
I6064
sS'd.c.'
p1674
I2289
sS'unlabeled'
p1675
I6065
sS'flooded'
p1676
I6066
sS'comprehensive'
p1677
I1444
sS'alert'
p1678
I6067
sS'rabia'
p1679
I6068
sS'viewing'
p1680
I5313
sS'levels'
p1681
I790
sS'doak'
p1682
I6071
sS'nickname'
p1683
I5325
sS'climb'
p1684
I6073
sS'recent'
p1685
I150
sS'kelli'
p1686
I6074
sS'makes'
p1687
I1045
sS'alleging'
p1688
I3759
sS'loathsome'
p1689
I6075
sS'talcott'
p1690
I2290
sS'picks'
p1691
I6076
sS'*t*-242'
p1692
I6077
sS'concrete'
p1693
I3760
sS'*t*-240'
p1694
I6078
sS'*t*-241'
p1695
I6079
sS'regulating'
p1696
I3761
sS'*t*-247'
p1697
I6080
sS'ltd.'
p1698
I577
sS'*t*-245'
p1699
I6081
sS'metallgesellschaft'
p1700
I6082
sS'nilson'
p1701
I6083
sS'*t*-248'
p1702
I6084
sS'clearance'
p1703
I3545
sS'rudolph'
p1704
I3542
sS'woodward'
p1705
I6086
sS'befuddled'
p1706
I6087
sS'0.50'
p1707
I6088
sS'50.1'
p1708
I6089
sS'outstrips'
p1709
I6090
sS"o'neill"
p1710
I6091
sS'lady'
p1711
I4122
sS'advertisements'
p1712
I3762
sS'aloha'
p1713
I6094
sS'signals'
p1714
I2836
sS'eager'
p1715
I2837
sS'parents'
p1716
I1631
sS'location'
p1717
I3763
sS'sydney'
p1718
I5411
sS'relevance'
p1719
I6096
sS'0.56'
p1720
I6097
sS'surprised'
p1721
I3764
sS'lumpur'
p1722
I6098
sS'australia'
p1723
I1916
sS'victims'
p1724
I1275
sS'emergency'
p1725
I6099
sS'demands'
p1726
I5421
sS'couple'
p1727
I3766
sS'wives'
p1728
I6100
sS'suffering'
p1729
I3767
sS'private'
p1730
I559
sS'aerospace'
p1731
I1917
sS'fortune'
p1732
I6102
sS'entrenched'
p1733
I6103
sS'projects'
p1734
I2291
sS'formal'
p1735
I3768
sS'equities'
p1736
I5898
sS'sorting'
p1737
I6104
sS'imposed'
p1738
I2838
sS'dai-ichi'
p1739
I3769
sS'consensus'
p1740
I6105
sS'communications'
p1741
I1918
sS'individuals'
p1742
I1632
sS'yields'
p1743
I1445
sS'*t*-32'
p1744
I3771
sS'collective'
p1745
I6106
sS'names'
p1746
I3772
sS'concedes'
p1747
I6107
sS'methods'
p1748
I3773
sS'senate'
p1749
I651
sS'spring'
p1750
I1276
sS'b.'
p1751
I1446
sS'crapshoot'
p1752
I6108
sS'bounce'
p1753
I6109
sS'pall'
p1754
I6111
sS'sight'
p1755
I6112
sS'sprint'
p1756
I6113
sS'7,500'
p1757
I3774
sS'amicable'
p1758
I6114
sS'momentary'
p1759
I6115
sS'shall'
p1760
I1409
sS'oblivion'
p1761
I6116
sS'efficiencies'
p1762
I6117
sS'prosecuted'
p1763
I6118
sS'cop-killer'
p1764
I2839
sS'dating'
p1765
I6119
sS'temple'
p1766
I1145
sS'be'
p1767
I36
sS'kearny'
p1768
I6120
sS'agreement'
p1769
I652
sS'allendale'
p1770
I6121
sS'nowhere'
p1771
I3613
sS'santa'
p1772
I2292
sS'relating'
p1773
I6123
sS'372.14'
p1774
I6124
sS'by'
p1775
I27
sS'cranked'
p1776
I6125
sS'1,200'
p1777
I6126
sS'zip'
p1778
I6127
sS'anything'
p1779
I799
sS'stock-selection'
p1780
I6128
sS'stuart'
p1781
I6129
sS'telephone-information'
p1782
I6130
sS'repair'
p1783
I2841
sS'belfries'
p1784
I6132
sS'clinton'
p1785
I6133
sS'colorado'
p1786
I3776
sS'garbage'
p1787
I1447
sS'terrorists'
p1788
I6134
sS'into'
p1789
I116
sS'diceon'
p1790
I6135
sS'takuma'
p1791
I3777
sS'80.8'
p1792
I6136
sS'appropriate'
p1793
I6137
sS'primarily'
p1794
I2293
sS'repaid'
p1795
I3778
sS'disputada'
p1796
I6139
sS'uncertainties'
p1797
I3779
sS'driscoll'
p1798
I3634
sS'submit'
p1799
I3780
sS'anti-program'
p1800
I6141
sS'crackdown'
p1801
I3781
sS'milne'
p1802
I6142
sS'suit'
p1803
I1448
sS':'
I79
sS'considerably'
p1804
I2842
sS'impudent'
p1805
I6143
sS'elsewhere'
p1806
I2843
sS'hawaiian'
p1807
I5652
sS'2,303,328'
p1808
I6145
sS'tally'
p1809
I3782
sS'slump'
p1810
I3783
sS'10.19'
p1811
I6146
sS'inched'
p1812
I3784
sS'38.375'
p1813
I6147
sS'atlantic'
p1814
I3785
sS'pacific'
p1815
I1383
sS'line'
p1816
I800
sS'considerable'
p1817
I1919
sS'posted'
p1818
I747
sS'cia'
p1819
I6148
sS'redeemed'
p1820
I2844
sS'up'
p1821
I76
sS'us'
p1822
I380
sS'maturity'
p1823
I2845
sS'customers'
p1824
I535
sS'mature'
p1825
I1146
sS'apiece'
p1826
I3786
sS'continuously'
p1827
I6149
sS'boomers'
p1828
I6151
sS'nationalist'
p1829
I6152
sS'defined'
p1830
I6153
sS'start-up'
p1831
I3787
sS'influence'
p1832
I1920
sS'u.s.a'
p1833
I6154
sS'13\\/16'
p1834
I6155
sS'diverse'
p1835
I6156
sS'palisades'
p1836
I6157
sS'defines'
p1837
I6158
sS'107.9'
p1838
I6159
sS'thugs'
p1839
I6160
sS'edwards'
p1840
I3788
sS'permissible'
p1841
I7300
sS'2,050-passenger'
p1842
I6161
sS'scrape'
p1843
I5765
sS'preventing'
p1844
I2294
sS'definitely'
p1845
I6163
sS'solaia'
p1846
I6164
sS'energetic'
p1847
I3789
sS'o.'
p1848
I6165
sS'prosecution'
p1849
I6166
sS'suppression'
p1850
I6168
sS'sides'
p1851
I1147
sS'ago'
p1852
I273
sS'lane'
p1853
I958
sS'land'
p1854
I2846
sS'mailing'
p1855
I3792
sS'age'
p1856
I1148
sS'28.36'
p1857
I6169
sS'annoyed'
p1858
I6170
sS'6.25'
p1859
I3793
sS'came'
p1860
I605
sS'6.20'
p1861
I2847
sS'6.21'
p1862
I6171
sS'566.54'
p1863
I6172
sS'fresh'
p1864
I2848
sS'having'
p1865
I1044
sS'hampton'
p1866
I2849
sS'code'
p1867
I2296
sS'partial'
p1868
I6173
sS'bridgeville'
p1869
I6174
sS'illustrates'
p1870
I6175
sS'sr.'
p1871
I6176
sS'broaden'
p1872
I6177
sS'results'
p1873
I460
sS'keidanren'
p1874
I5380
sS'softer'
p1875
I6178
sS'broader'
p1876
I2297
sS'centers'
p1877
I3794
sS'inferences'
p1878
I6180
sS'seemed'
p1879
I1633
sS'longstanding'
p1880
I6181
sS'harvest'
p1881
I2548
sS'concerned'
p1882
I2852
sS'young'
p1883
I695
sS'send'
p1884
I1921
sS'citing'
p1885
I2853
sS'dislike'
p1886
I3795
sS'social-studies'
p1887
I3796
sS'indicating'
p1888
I3708
sS'garret'
p1889
I6182
sS'continues'
p1890
I871
sS'reopened'
p1891
I6185
sS'mcalpine'
p1892
I1634
sS'ridgefield'
p1893
I6186
sS'continued'
p1894
I1150
sS'timely'
p1895
I6187
sS'sen.'
p1896
I1922
sS'real-estate'
p1897
I3797
sS'experiencing'
p1898
I6189
sS'fewer'
p1899
I1923
sS'try'
p1900
I2298
sS'threat'
p1901
I3798
sS'race'
p1902
I2810
sS'knowledgeable'
p1903
I6190
sS'less-than-brilliant'
p1904
I6191
sS'enzor'
p1905
I6192
sS'598'
p1906
I6193
sS'licensed'
p1907
I6195
sS'crook'
p1908
I6196
sS'imply'
p1909
I6197
sS'video'
p1910
I6198
sS'enclosed'
p1911
I6199
sS'negus'
p1912
I6200
sS'licenses'
p1913
I6201
sS'wheat'
p1914
I7144
sS'dynamics'
p1915
I2854
sS'odd'
p1916
I2814
sS'victor'
p1917
I3800
sS'index'
p1918
I130
sS'lehman'
p1919
I1636
sS'shivers'
p1920
I6204
sS'expressed'
p1921
I1924
sS'sweaty'
p1922
I6205
sS'richmond'
p1923
I3801
sS'consistently'
p1924
I3736
sS'turnaround'
p1925
I2855
sS'firms'
p1926
I298
sS'chefs'
p1927
I6207
sS'publications'
p1928
I2299
sS'led'
p1929
I653
sS'lee'
p1930
I6208
sS'90-day'
p1931
I6209
sS'len'
p1932
I6210
sS'leo'
p1933
I3746
sS'dressed'
p1934
I6212
sS'resisting'
p1935
I6213
sS'poverty'
p1936
I3802
sS'consideration'
p1937
I2856
sS'invented'
p1938
I3803
sS'fifteen'
p1939
I6214
sS'great'
p1940
I508
sS'engage'
p1941
I6215
sS'technical'
p1942
I1912
sS'involved'
p1943
I872
sS'casino'
p1944
I3804
sS'resulting'
p1945
I1925
sS'ctb'
p1946
I6216
sS'defeat'
p1947
I3805
sS'opinion'
p1948
I1637
sS'stephanie'
p1949
I3758
sS'maker'
p1950
I381
sS'involves'
p1951
I3806
sS'acne'
p1952
I2857
sS'339'
p1953
I6217
sS'7.50'
p1954
I6218
sS'7.52'
p1955
I6219
sS'7.55'
p1956
I6221
sS'raul'
p1957
I7147
sS'ninth'
p1958
I6011
sS'tools'
p1959
I6223
sS'standing'
p1960
I1450
sS'confidence'
p1961
I1638
sS'exciting'
p1962
I7148
sS'property\\/casualty'
p1963
I2858
sS'certificate'
p1964
I3808
sS'rico'
p1965
I6224
sS'recalling'
p1966
I6225
sS'illegal'
p1967
I1926
sS'whipping'
p1968
I6226
sS'ministers'
p1969
I6227
sS'next'
p1970
I153
sS'doubt'
p1971
I2859
sS'bonds'
p1972
I179
sS'intend'
p1973
I3599
sS'touched'
p1974
I6228
sS'pencil'
p1975
I6229
sS'teikoku'
p1976
I6230
sS'occurred'
p1977
I2860
sS'dealings'
p1978
I2300
sS'carrying'
p1979
I6233
sS'sharply'
p1980
I960
sS'baby'
p1981
I6234
sS'payrolls'
p1982
I3809
sS'promotional'
p1983
I6235
sS'customer'
p1984
I1277
sS'mid-1970s'
p1985
I6236
sS'balls'
p1986
I6237
sS'practicing'
p1987
I6238
sS'this'
p1988
I52
sS'challenge'
p1989
I2861
sS'clients'
p1990
I654
sS'insists'
p1991
I3810
sS'pour'
p1992
I6240
sS'prompts'
p1993
I6241
sS'1.49'
p1994
I6242
sS'thin'
p1995
I2301
sS'1.46'
p1996
I6243
sS'slid'
p1997
I3811
sS'weaker'
p1998
I2862
sS'process'
p1999
I873
sS'lock'
p2000
I3812
sS'purposes'
p2001
I6232
sS'pieces'
p2002
I3813
sS'high'
p2003
I204
sS'bend'
p2004
I6245
sS'slip'
p2005
I6246
sS'martyr'
p2006
I6247
sS'bolstered'
p2007
I3814
sS'weaken'
p2008
I2863
sS'educational'
p2009
I3815
sS'reuter'
p2010
I6248
sS'delay'
p2011
I2864
sS'bilingual'
p2012
I6249
sS'992,000'
p2013
I6250
sS'yen-denominated'
p2014
I6251
sS'establishment'
p2015
I3817
sS'cristal'
p2016
I3818
sS'blocks'
p2017
I3819
sS'tied'
p2018
I3820
sS'halted'
p2019
I3821
sS'weighed'
p2020
I6253
sS'maturities'
p2021
I3260
sS'demonstrating'
p2022
I6254
sS'fits'
p2023
I6255
sS'ties'
p2024
I1927
sS'marrow'
p2025
I6256
sS'upstate'
p2026
I6257
sS'platt'
p2027
I6258
sS'realized'
p2028
I2302
sS'revising'
p2029
I6259
sS'boeing'
p2030
I3822
sS'manpower'
p2031
I6260
sS'counter'
p2032
I6261
sS'element'
p2033
I6262
sS'commodities'
p2034
I1928
sS'allow'
p2035
I1278
sS'pyramids'
p2036
I3823
sS'*ppa*-3'
p2037
I2866
sS'*ppa*-2'
p2038
I3824
sS'*ppa*-1'
p2039
I3825
sS'houston'
p2040
I2304
sS'lenders'
p2041
I6263
sS'producer'
p2042
I1929
sS'8.50'
p2043
I5128
sS'move'
p2044
I428
sS'8.53'
p2045
I7153
sS'produced'
p2046
I1151
sS'brunello'
p2047
I3826
sS'year-earlier'
p2048
I1279
sS'warren'
p2049
I3827
sS'mitsui'
p2050
I1152
sS'decay'
p2051
I6266
sS'chosen'
p2052
I2867
sS'8.56'
p2053
I7156
sS'2019'
p2054
I1940
sS'communication'
p2055
I3830
sS'puerto'
p2056
I6268
sS'2017'
p2057
I3831
sS'murakami'
p2058
I3832
sS'bat'
p2059
I6269
sS'realize'
p2060
I1930
sS'presidential'
p2061
I6270
sS'spilling'
p2062
I6271
sS'installment'
p2063
I6272
sS'scenic'
p2064
I6273
sS'237-seat'
p2065
I6274
sS'traced'
p2066
I6275
sS'merge'
p2067
I3833
sS'truth'
p2068
I3834
sS'shortage'
p2069
I6276
sS'rising'
p2070
I1280
sS'exacerbated'
p2071
I6278
sS'suitors'
p2072
I6279
sS'doing'
p2073
I1153
sS'*exp*-3'
p2074
I6280
sS'society'
p2075
I1640
sS'*exp*-1'
p2076
I368
sS'books'
p2077
I1944
sS'agriculture'
p2078
I1641
sS'witness'
p2079
I6282
sS'ratner'
p2080
I6283
sS'fundamentally'
p2081
I6284
sS"'"
I133
sS'boutique'
p2082
I6285
sS'mannix'
p2083
I6286
sS'overproduction'
p2084
I6287
sS'much-larger'
p2085
I6288
sS'akerfeldt'
p2086
I6289
sS'bicameral'
p2087
I6290
sS'bunches'
p2088
I6292
sS'waters'
p2089
I3263
sS'troop'
p2090
I6293
sS'shut'
p2091
I2868
sS'interactions'
p2092
I6294
sS'234.4'
p2093
I6295
sS'greedy'
p2094
I6296
sS'regulators'
p2095
I874
sS'berson'
p2096
I6297
sS'surely'
p2097
I3933
sS'gardner'
p2098
I6298
sS'fetal'
p2099
I6299
sS'regulatory'
p2100
I1154
sS'langner'
p2101
I6300
sS's.p.a.'
p2102
I6301
sS'mainland'
p2103
I6302
sS'dubbed'
p2104
I6303
sS'could'
p2105
I85
sS'put'
p2106
I481
sS'david'
p2107
I801
sS'length'
p2108
I6304
sS'stoppage'
p2109
I7057
sS'davis'
p2110
I2869
sS'nutrition'
p2111
I7022
sS'458'
p2112
I6305
sS'450'
p2113
I2305
sS'451'
p2114
I6306
sS'454'
p2115
I6307
sS'owned'
p2116
I1642
sS'disposed'
p2117
I6309
sS'occurrences'
p2118
I6310
sS'owner'
p2119
I2306
sS'cabbage'
p2120
I6311
sS'buoyed'
p2121
I6312
sS'nyse'
p2122
I6313
sS'legislative'
p2123
I1931
sS'23.25'
p2124
I6314
sS'deceptive'
p2125
I6315
sS'start'
p2126
I1281
sS'ordering'
p2127
I6316
sS'system'
p2128
I655
sS'vetoes'
p2129
I6317
sS'sensitivity'
p2130
I6318
sS'interests'
p2131
I1932
sS'enforcement'
p2132
I1046
sS'accompany'
p2133
I6319
sS'stars'
p2134
I6320
sS'rockwell'
p2135
I2307
sS'*t*-25'
p2136
I3838
sS'*t*-24'
p2137
I3839
sS'*t*-27'
p2138
I6321
sS'*t*-26'
p2139
I6322
sS'*t*-21'
p2140
I3840
sS'*t*-20'
p2141
I6323
sS'*t*-23'
p2142
I3841
sS'*t*-22'
p2143
I3842
sS'*t*-29'
p2144
I3843
sS'*t*-28'
p2145
I3973
sS'steel'
p2146
I748
sS'colleagues'
p2147
I1933
sS'egregious'
p2148
I6324
sS'20-point'
p2149
I6325
sS'reacted'
p2150
I6326
sS'appealing'
p2151
I3845
sS'orchestrated'
p2152
I6327
sS'126.15'
p2153
I6328
sS'briefing'
p2154
I6329
sS'federally'
p2155
I6330
sS'steep'
p2156
I6331
sS'torrent'
p2157
I6332
sS'collecting'
p2158
I3846
sS'accusing'
p2159
I6333
sS'student-test'
p2160
I6334
sS'shrinks'
p2161
I3847
sS'one-country'
p2162
I6335
sS'partnership'
p2163
I1451
sS'reassuring'
p2164
I6336
sS'gentle'
p2165
I6337
sS'defending'
p2166
I6338
sS'9.75'
p2167
I6339
sS'clearly'
p2168
I1934
sS'viewed'
p2169
I2309
sS'nemeth'
p2170
I3848
sS'necessities'
p2171
I6340
sS'prohibits'
p2172
I2870
sS'documents'
p2173
I1643
sS'how-to'
p2174
I6341
sS'studying'
p2175
I3849
sS'mechanism'
p2176
I6343
sS'cross-border'
p2177
I6344
sS'lefcourt'
p2178
I6345
sS'equaling'
p2179
I6346
sS'linda'
p2180
I3850
sS'lancaster'
p2181
I3851
sS'asserts'
p2182
I6347
sS'pitches'
p2183
I7173
sS'device'
p2184
I2871
sS'segment'
p2185
I1644
sS'so-called'
p2186
I1935
sS'placement'
p2187
I6348
sS'sweeping'
p2188
I2371
sS'stronger'
p2189
I1936
sS'program-trading'
p2190
I961
sS'mechanical'
p2191
I2872
sS'painting'
p2192
I6349
sS'fact'
p2193
I696
sS'hunker'
p2194
I6350
sS'centralized'
p2195
I6351
sS'vacancy'
p2196
I6352
sS'bring'
p2197
I1155
sS'acid-rain'
p2198
I3853
sS'manchester'
p2199
I6353
sS'lloyd'
p2200
I6354
sS'rouge'
p2201
I3854
sS'rough'
p2202
I6355
sS'economist'
p2203
I1645
sS'decade'
p2204
I1646
sS'principal'
p2205
I656
sS'15-day'
p2206
I6356
sS'promote'
p2207
I2873
sS'*-18'
p2208
I3855
sS'*-19'
p2209
I3856
sS'jay'
p2210
I3857
sS'*-14'
p2211
I3858
sS'*-15'
p2212
I6357
sS'*-16'
p2213
I6358
sS'produces'
p2214
I6264
sS'*-10'
p2215
I3859
sS'*-11'
p2216
I6360
sS'*-12'
p2217
I3860
sS'*-13'
p2218
I4005
sS'planted'
p2219
I6361
sS'printers'
p2220
I6362
sS'58-year-old'
p2221
I6363
sS'hope'
p2222
I1452
sS'meant'
p2223
I6365
sS'wheeland'
p2224
I7011
sS'insight'
p2225
I6366
sS'capsules'
p2226
I6367
sS'means'
p2227
I1676
sS'familiar'
p2228
I2874
sS'lucky'
p2229
I6368
sS'autos'
p2230
I6369
sS'exchanges'
p2231
I2875
sS'moneymakers'
p2232
I6370
sS'shaping'
p2233
I6371
sS'committees'
p2234
I6372
sS'a.c.'
p2235
I6373
sS'braidwood'
p2236
I2876
sS'wilmington'
p2237
I6374
sS'taxes'
p2238
I2310
sS'618.1'
p2239
I6376
sS'assembly-line'
p2240
I6377
sS'anti-programmers'
p2241
I3861
sS'whelen'
p2242
I2361
sS'1.1650'
p2243
I6378
sS'*t*-167'
p2244
I6379
sS'withstand'
p2245
I4387
sS'temporarily'
p2246
I1647
sS'*t*-163'
p2247
I6381
sS'*t*-162'
p2248
I6382
sS'*t*-161'
p2249
I6383
sS'btr'
p2250
I3862
sS'*t*-169'
p2251
I6384
sS'*t*-168'
p2252
I6385
sS'edition'
p2253
I3863
sS'subcommittee'
p2254
I2311
sS'squier'
p2255
I7977
sS'bidders'
p2256
I2878
sS'packed'
p2257
I6386
sS'crystal-lattice'
p2258
I3864
sS'nationwide'
p2259
I3563
sS'nuclear'
p2260
I1937
sS'partisan'
p2261
I6387
sS'fulbright'
p2262
I6388
sS'nominees'
p2263
I6389
sS'retentive'
p2264
I6390
sS'band-wagon'
p2265
I6391
sS'ends'
p2266
I3865
sS'explosive'
p2267
I6392
sS'w.r.'
p2268
I2879
sS'lawsuit'
p2269
I1938
sS'marty'
p2270
I3866
sS'restrictions'
p2271
I1648
sS'drug'
p2272
I578
sS'32.8'
p2273
I6393
sS'komatsu'
p2274
I3867
sS'figures'
p2275
I1047
sS'nofzinger'
p2276
I6394
sS'129.91'
p2277
I6395
sS'strongly'
p2278
I2880
sS'adjusted'
p2279
I1939
sS'co'
p2280
I697
sS'conclude'
p2281
I2881
sS'low-altitude'
p2282
I6396
sS'malcolm'
p2283
I4119
sS'576'
p2284
I6397
sS'incest'
p2285
I6398
sS'wickliffe'
p2286
I6399
sS'cs'
p2287
I2312
sS'allocated'
p2288
I6400
sS'labor'
p2289
I1268
sS'8.1'
p2290
I3869
sS'8.5'
p2291
I3870
sS'midland'
p2292
I6401
sS'8.9'
p2293
I3871
sS'quotas'
p2294
I3872
sS'poured'
p2295
I6403
sS'degrees'
p2296
I3829
sS'waste'
p2297
I1941
sS'louisiana'
p2298
I6404
sS'trinity'
p2299
I6405
sS'chastised'
p2300
I3873
sS'homosexual'
p2301
I2882
sS'c.'
p2302
I1049
sS'valuations'
p2303
I6406
sS'609'
p2304
I7186
sS'c$'
p2305
I6407
sS'federalist'
p2306
I6408
sS'elmhurst'
p2307
I6409
sS'*t*-96'
p2308
I6410
sS'graphics'
p2309
I3874
sS'allergan'
p2310
I3875
sS'spain'
p2311
I2313
sS'salmore'
p2312
I3876
sS'laser'
p2313
I3877
sS'sotheby'
p2314
I6411
sS'54-year-old'
p2315
I6412
sS'lorillard'
p2316
I2314
sS'rigged'
p2317
I6413
sS'rbc'
p2318
I6414
sS'siti'
p2319
I6415
sS'diversification'
p2320
I6416
sS'odd-year'
p2321
I3878
sS'surprisingly'
p2322
I2883
sS'hardware'
p2323
I2315
sS'counterweight'
p2324
I6417
sS'excessively'
p2325
I6418
sS'overleveraged'
p2326
I6419
sS'passbook'
p2327
I6420
sS'hubbard'
p2328
I6421
sS'newsroom'
p2329
I3880
sS'romance'
p2330
I3881
sS'matthew'
p2331
I6422
sS'ariz.'
p2332
I3882
sS'phi'
p2333
I6423
sS'ball'
p2334
I6424
sS'columbia'
p2335
I351
sS'mcgovern'
p2336
I962
sS'fielded'
p2337
I6425
sS'drink'
p2338
I2392
sS'upon'
p2339
I2316
sS'unsympathetic'
p2340
I6427
sS'v.'
p2341
I2884
sS'forecasts'
p2342
I2317
sS'robotic'
p2343
I6428
sS'dust'
p2344
I6429
sS'expand'
p2345
I2318
sS'audit'
p2346
I2885
sS'off'
p2347
I223
sS'achievement-test'
p2348
I6431
sS'indonesia'
p2349
I3883
sS'bmp-1'
p2350
I3884
sS'patterns'
p2351
I3885
sS'7.74'
p2352
I3886
sS'1.28'
p2353
I6432
sS'command'
p2354
I3887
sS'244,000'
p2355
I6433
sS'diversify'
p2356
I3888
sS'1.20'
p2357
I6434
sS'1.26'
p2358
I4192
sS'1.25'
p2359
I2886
sS'1.24'
p2360
I5395
sS'newest'
p2361
I6436
sS'restructure'
p2362
I6437
sS'softening'
p2363
I3890
sS'less'
p2364
I255
sS'moments'
p2365
I6438
sS'gelles'
p2366
I6440
sS'predicts'
p2367
I6441
sS'hauled'
p2368
I6442
sS'paul'
p2369
I2405
sS'afflicted'
p2370
I6443
sS'web'
p2371
I6444
sS'generous'
p2372
I6445
sS'residential'
p2373
I2319
sS'arrest'
p2374
I6446
sS'combine'
p2375
I6447
sS'crack'
p2376
I3892
sS'crum'
p2377
I2887
sS'government'
p2378
I117
sS'checking'
p2379
I3893
sS'fuji'
p2380
I6449
sS'haul'
p2381
I3894
sS'five'
p2382
I352
sS'gambling'
p2383
I6450
sS'mesnil'
p2384
I3895
sS'finnish'
p2385
I2888
sS'chairs'
p2386
I6451
sS'garage'
p2387
I6452
sS'become'
p2388
I539
sS'sell-offs'
p2389
I6453
sS'replacement'
p2390
I2889
sS'amendment'
p2391
I1649
sS'gaining'
p2392
I4144
sS'indications'
p2393
I6454
sS'liquidation'
p2394
I6455
sS'underwent'
p2395
I3896
sS'newsworthy'
p2396
I6456
sS'choosing'
p2397
I3897
sS'loaded'
p2398
I6457
sS'ballot'
p2399
I1943
sS'recognition'
p2400
I2890
sS'705.6'
p2401
I6458
sS'hollis'
p2402
I6459
sS'avoid'
p2403
I1650
sS'alstyne'
p2404
I6460
sS'inkling'
p2405
I6461
sS'sketching'
p2406
I6462
sS'salaries'
p2407
I3898
sS'demonstrators'
p2408
I3899
sS'does'
p2409
I197
sS'passion'
p2410
I6463
sS'forgiven'
p2411
I3900
sS'schedule'
p2412
I6464
sS'brokering'
p2413
I6465
sS'pressure'
p2414
I579
sS'3.80'
p2415
I5406
sS'persky'
p2416
I6466
sS'loans'
p2417
I1454
sS'vs.'
p2418
I3901
sS'stage'
p2419
I3902
sS'gained'
p2420
I699
sS'puts'
p2421
I4401
sS'debentures'
p2422
I1651
sS'angeles'
p2423
I963
sS'holdings'
p2424
I1414
sS'14,821'
p2425
I6467
sS'concession'
p2426
I3903
sS'warner'
p2427
I3270
sS'massachusetts'
p2428
I1635
sS'cadet'
p2429
I3905
sS'high-priced'
p2430
I2891
sS'letters'
p2431
I1283
sS'commitment'
p2432
I2892
sS'referendum'
p2433
I6469
sS'assess'
p2434
I6470
sS'disaffected'
p2435
I6471
sS'lung'
p2436
I6472
sS'cultivated'
p2437
I6473
sS'merc'
p2438
I1455
sS'mere'
p2439
I3906
sS'negotiable'
p2440
I6474
sS'terminated'
p2441
I6475
sS'housing'
p2442
I6476
sS'disapproval'
p2443
I6477
sS'peters'
p2444
I6478
sS'lost'
p2445
I749
sS'purepac'
p2446
I6479
sS'cash-flow'
p2447
I6480
sS'9.8'
p2448
I3907
sS'9.9'
p2449
I3908
sS'9.5'
p2450
I3909
sS'gut'
p2451
I6887
sS'pretax'
p2452
I875
sS'9.3'
p2453
I6481
sS'fiscal'
p2454
I265
sS'cosmopolitan'
p2455
I6482
sS'delivery'
p2456
I750
sS'tutorials'
p2457
I6483
sS'lowered'
p2458
I2406
sS'valuation'
p2459
I4292
sS'basin'
p2460
I3910
sS'fragmentation'
p2461
I6485
sS'places'
p2462
I2744
sS'*exp*-2'
p2463
I1652
sS'official'
p2464
I540
sS'smooth'
p2465
I6487
sS'kathleen'
p2466
I6488
sS'placed'
p2467
I1456
sS'frequency'
p2468
I6281
sS'nancy'
p2469
I6489
sS'12-member'
p2470
I6490
sS'distribution'
p2471
I2437
sS'bearing'
p2472
I3911
sS'recognize'
p2473
I2893
sS'contribute'
p2474
I3912
sS'dissemination'
p2475
I2321
sS'ins'
p2476
I6491
sS'father-in-law'
p2477
I6492
sS'inc'
p2478
I700
sS'planting'
p2479
I6494
sS'compared'
p2480
I328
sS'agreed-upon'
p2481
I6495
sS'nonetheless'
p2482
I3913
sS'trials'
p2483
I6496
sS'scholarly'
p2484
I6497
sS'lately'
p2485
I6498
sS'compares'
p2486
I3914
sS'details'
p2487
I1945
sS'70-a-share'
p2488
I6499
sS'francisco'
p2489
I802
sS'58.64'
p2490
I6500
sS'monday'
p2491
I876
sS'outlets'
p2492
I3915
sS'chance'
p2493
I1653
sS'wrenching'
p2494
I6501
sS'multinationals'
p2495
I6502
sS'exposure'
p2496
I1946
sS'undercutting'
p2497
I6503
sS'lasted'
p2498
I6504
sS'rule'
p2499
I877
sS'side-crash'
p2500
I5346
sS'472'
p2501
I6505
sS'lift'
p2502
I2230
sS'compete'
p2503
I2894
sS'pension'
p2504
I1947
sS'searched'
p2505
I6506
sS'rural'
p2506
I6507
sS'consolidated'
p2507
I3917
sS'magnetic'
p2508
I2895
sS'doubts'
p2509
I6508
sS'desirable'
p2510
I3918
sS'unico'
p2511
I6509
sS'elisabeth'
p2512
I6510
sS'controversial'
p2513
I2322
sS'oldest'
p2514
I3919
sS'saved'
p2515
I6511
sS'170,262'
p2516
I6512
sS'ethics'
p2517
I5907
sS'votes'
p2518
I3920
sS'onus'
p2519
I6513
sS'sputtered'
p2520
I6514
sS'driskill'
p2521
I4351
sS'edward'
p2522
I1654
sS'voted'
p2523
I1948
sS'heavy-truck'
p2524
I6516
sS'plaintive'
p2525
I6517
sS'worth'
p2526
I1156
sS'overpaying'
p2527
I6518
sS'compassion'
p2528
I6520
sS'aurora'
p2529
I4361
sS'sellers'
p2530
I3921
sS'mania'
p2531
I6522
sS'pta'
p2532
I6523
sS'jacob'
p2533
I6524
sS'exporters'
p2534
I1949
sS'tickets'
p2535
I3922
sS'plantation'
p2536
I7993
sS'relentlessly'
p2537
I6525
sS'roadblock'
p2538
I6526
sS'nagymaros'
p2539
I3923
sS'announced'
p2540
I657
sS'abolishing'
p2541
I6527
sS'295'
p2542
I6528
sS'1940s'
p2543
I6529
sS'jamaica'
p2544
I2896
sS'paperback'
p2545
I6530
sS'phipps'
p2546
I6532
sS'planters'
p2547
I6533
sS'machines'
p2548
I1655
sS'letter-writing'
p2549
I6534
sS'*-38'
p2550
I3924
sS'*-39'
p2551
I3925
sS'ugly'
p2552
I6536
sS'*-32'
p2553
I3926
sS'*-33'
p2554
I4386
sS'*-30'
p2555
I6538
sS'*-31'
p2556
I3927
sS'*-36'
p2557
I6539
sS'*-37'
p2558
I3928
sS'*-34'
p2559
I4389
sS'*-35'
p2560
I3929
sS'london-based'
p2561
I2323
sS'above'
p2562
I613
sS'toll'
p2563
I6541
sS'zoomed'
p2564
I6542
sS'churches'
p2565
I2897
sS'officially'
p2566
I1656
sS'consisting'
p2567
I6544
sS'told'
p2568
I803
sS'crunch'
p2569
I2898
sS'simultaneously'
p2570
I6545
sS'asada'
p2571
I6546
sS'jolts'
p2572
I6547
sS'conglomerate'
p2573
I2899
sS'protection'
p2574
I1457
sS'sidak'
p2575
I6548
sS'referring'
p2576
I6549
sS'obtained'
p2577
I3126
sS'watchers'
p2578
I3930
sS'items'
p2579
I1950
sS'study'
p2580
I822
sS'envoy'
p2581
I6552
sS'pinning'
p2582
I6553
sS'smoke'
p2583
I6554
sS'stressed'
p2584
I3932
sS'pamplin'
p2585
I3836
sS'postponed'
p2586
I6555
sS'*t*-141'
p2587
I6556
sS'*t*-140'
p2588
I6557
sS'*t*-143'
p2589
I6558
sS'*t*-142'
p2590
I6559
sS'*t*-145'
p2591
I6560
sS'*t*-144'
p2592
I6561
sS'*t*-147'
p2593
I6562
sS'*t*-146'
p2594
I6563
sS'*t*-149'
p2595
I6564
sS'*t*-148'
p2596
I6565
sS'graders'
p2597
I3934
sS'peabody'
p2598
I3935
sS'highly'
p2599
I964
sS'neutrons'
p2600
I6566
sS'opportunities'
p2601
I3936
sS'total'
p2602
I430
sS'plot'
p2603
I6568
sS'palestinian'
p2604
I3937
sS'sweater'
p2605
I6569
sS'manipulators'
p2606
I5271
sS'bundles'
p2607
I6571
sS'negative'
p2608
I1458
sS'year-long'
p2609
I6572
sS'indiana'
p2610
I2900
sS'hahn'
p2611
I542
sS'sauvignon'
p2612
I6573
sS'ascribe'
p2613
I6574
sS'aware'
p2614
I2902
sS'lazzaroni'
p2615
I6575
sS'mather'
p2616
I6576
sS'tariff'
p2617
I3938
sS'1991'
p2618
I614
sS'1990'
p2619
I237
sS'1993'
p2620
I1951
sS'1992'
p2621
I1459
sS'word'
p2622
I2324
sS'1994'
p2623
I2903
sS'1997'
p2624
I6577
sS'permits'
p2625
I6578
sS'1999'
p2626
I1952
sS'1998'
p2627
I6579
sS'work'
p2628
I403
sS'eclipse'
p2629
I6580
sS'era'
p2630
I2904
sS'already'
p2631
I299
sS'la.'
p2632
I6581
sS'circuit-board'
p2633
I6582
sS'indicated'
p2634
I878
sS'cited'
p2635
I1284
sS'bennett'
p2636
I6583
sS'belonging'
p2637
I5163
sS'indicates'
p2638
I1460
sS'fanciful'
p2639
I6584
sS'ual'
p2640
I804
sS'8.30'
p2641
I6585
sS'cites'
p2642
I2905
sS'totaled'
p2643
I1285
sS'recovery'
p2644
I6586
sS'carriers'
p2645
I6587
sS'provide'
p2646
I879
sS'rationed'
p2647
I6588
sS'sparkplugs'
p2648
I6589
sS'interview'
p2649
I1286
sS'ordinary'
p2650
I6590
sS'resignation'
p2651
I2906
sS'rapprochement'
p2652
I6592
sS'transforming'
p2653
I6593
sS'after'
p2654
I108
sS'damaged'
p2655
I2907
sS'lab'
p2656
I6594
sS'melt-textured'
p2657
I6595
sS'lay'
p2658
I6596
sS'suing'
p2659
I3940
sS'law'
p2660
I247
sS'meaningful'
p2661
I6597
sS'foundering'
p2662
I6598
sS'las'
p2663
I2908
sS'chilled'
p2664
I6599
sS'preparatives'
p2665
I6244
sS'bridgestone\\/firestone'
p2666
I3941
sS'greer'
p2667
I6601
sS'retort'
p2668
I6602
sS'green'
p2669
I1953
sS'fan'
p2670
I6603
sS'order'
p2671
I580
sS'greed'
p2672
I6604
sS'salon'
p2673
I2325
sS'office'
p2674
I482
sS'devote'
p2675
I3942
sS'dirtiest'
p2676
I6605
sS'consent'
p2677
I1954
sS'112.9'
p2678
I6606
sS'6.7'
p2679
I6607
sS'6.6'
p2680
I3943
sS'6.5'
p2681
I3944
sS'12.7'
p2682
I6608
sS'12.5'
p2683
I1657
sS'innovative'
p2684
I6609
sS'japan'
p2685
I127
sS'nets'
p2686
I6610
sS'mayor'
p2687
I1461
sS'6.9'
p2688
I3945
sS'sheaf'
p2689
I6611
sS'50,000'
p2690
I2505
sS'denver'
p2691
I5452
sS'production'
p2692
I509
sS'damages'
p2693
I1955
sS'versus'
p2694
I6615
sS'then'
p2695
I311
sS'them'
p2696
I143
sS'bans'
p2697
I6616
sS'break'
p2698
I2909
sS'band'
p2699
I2326
sS'bang'
p2700
I2910
sS'penetration'
p2701
I6617
sS'brean'
p2702
I3946
sS'they'
p2703
I49
sS'bank'
p2704
I159
sS'bread'
p2705
I6618
sS'1.01'
p2706
I6619
sS'phobias'
p2707
I6620
sS'shepperd'
p2708
I6621
sS'reasonably'
p2709
I6622
sS'classified'
p2710
I6623
sS'backgrounds'
p2711
I6624
sS'7.95'
p2712
I3947
sS'feeds'
p2713
I6625
sS'7.90'
p2714
I2327
sS'carlos'
p2715
I2911
sS'lifted'
p2716
I6626
sS'observance'
p2717
I6627
sS'*t*-236'
p2718
I7000
sS'councils'
p2719
I2912
sS'two-tiered'
p2720
I6629
sS'hosted'
p2721
I6630
sS'ratepayers'
p2722
I6631
sS'slew'
p2723
I6632
sS'burnham'
p2724
I1956
sS'burlap'
p2725
I6633
sS'network'
p2726
I1287
sS'danforth'
p2727
I3948
sS'substance-abusing'
p2728
I6634
sS'fellowship'
p2729
I6635
sS'daniel'
p2730
I3949
sS'remorse'
p2731
I6636
sS'unicorp'
p2732
I3950
sS'medicine'
p2733
I1462
sS'judith'
p2734
I6637
sS'sliding'
p2735
I6638
sS'disputed'
p2736
I6639
sS'barrier'
p2737
I2913
sS'veto'
p2738
I510
sS'lawless'
p2739
I6640
sS'5.2180'
p2740
I6641
sS'standard'
p2741
I581
sS'campaigns'
p2742
I2517
sS'appointments'
p2743
I3951
sS'disputes'
p2744
I3952
sS'pro-democracy'
p2745
I3953
sS'swearingen'
p2746
I6643
sS'ntg'
p2747
I3954
sS'renee'
p2748
I6645
sS'recovering'
p2749
I6646
sS'created'
p2750
I1463
sS'45.75'
p2751
I6647
sS'courter'
p2752
I1288
sS'240,000'
p2753
I6648
sS'creates'
p2754
I3955
sS'lousy'
p2755
I6649
sS'renew'
p2756
I6650
sS'oppose'
p2757
I2328
sS'incorporated'
p2758
I6651
sS'unenticing'
p2759
I6652
sS'generalizations'
p2760
I6653
sS'clouding'
p2761
I6654
sS'pardus'
p2762
I6655
sS'chopped'
p2763
I6656
sS'veraldi'
p2764
I1957
sS'doling'
p2765
I6658
sS'another'
p2766
I212
sS'electronic'
p2767
I1958
sS'rated'
p2768
I2914
sS'hedging'
p2769
I6659
sS'protracted'
p2770
I6660
sS'rates'
p2771
I218
sS'observations'
p2772
I6661
sS'danville'
p2773
I3956
sS'john'
p2774
I288
sS'dogs'
p2775
I6662
sS'damaging'
p2776
I6663
sS'190-point'
p2777
I6664
sS'paltry'
p2778
I3957
sS'diversified'
p2779
I2915
sS'albert'
p2780
I3958
sS'besuboru'
p2781
I6666
sS'rejected'
p2782
I1157
sS'honolulu'
p2783
I6668
sS'wasted'
p2784
I6669
sS'toronto'
p2785
I2916
sS'guild'
p2786
I1289
sS'target'
p2787
I1158
sS'n.h.'
p2788
I6671
sS'citibank'
p2789
I6672
sS'sandifer'
p2790
I6673
sS'burgundies'
p2791
I3959
sS'scenes'
p2792
I4618
sS'iota'
p2793
I6675
sS'historical'
p2794
I3960
sS'constitutional-law'
p2795
I6676
sS'powers'
p2796
I1658
sS'minus'
p2797
I3961
sS'30.9'
p2798
I6677
sS'210,000'
p2799
I6678
sS'rewrite'
p2800
I3962
sS'500,004'
p2801
I6679
sS'30.6'
p2802
I6680
sS'500,000'
p2803
I3963
sS'manner'
p2804
I3964
sS'stalls'
p2805
I6681
sS'high-minded'
p2806
I6682
sS'forced'
p2807
I1659
sS'strength'
p2808
I1959
sS'340,000'
p2809
I6683
sS'convenient'
p2810
I2917
sS'seymour'
p2811
I1960
sS'indexes'
p2812
I6684
sS'subjects'
p2813
I4634
sS'luxury'
p2814
I6685
sS'forces'
p2815
I1660
sS'mossman'
p2816
I6686
sS'unsecured'
p2817
I2918
sS'7.40'
p2818
I4698
sS'400,000'
p2819
I6687
sS'hammond'
p2820
I2919
sS'sue'
p2821
I6688
sS'exercised'
p2822
I3965
sS'extending'
p2823
I3966
sS'involving'
p2824
I1464
sS'germany'
p2825
I1465
sS'scripts'
p2826
I6689
sS'phase'
p2827
I6690
sS'assessed'
p2828
I6691
sS'germans'
p2829
I6692
sS'neighborhoods'
p2830
I3967
sS'incomplete'
p2831
I2295
sS'calculated'
p2832
I6693
sS'alumni'
p2833
I6694
sS'dunton'
p2834
I6695
sS'sandinista'
p2835
I6696
sS'accounted'
p2836
I6698
sS'guffey'
p2837
I2541
sS'voting'
p2838
I3969
sS'responded'
p2839
I2921
sS'reserve'
p2840
I1661
sS'd.'
p2841
I701
sS'stephens'
p2842
I6700
sS'opinions'
p2843
I6701
sS'teetering'
p2844
I6702
sS'lewis'
p2845
I2922
sS'greenville'
p2846
I965
sS'7.2'
p2847
I3970
sS'7.3'
p2848
I2923
sS'7.5'
p2849
I2924
sS'7.8'
p2850
I6703
sS'enjoyed'
p2851
I6704
sS'toast'
p2852
I3972
sS'0.0085'
p2853
I6705
sS'implementation'
p2854
I6706
sS'elite'
p2855
I6707
sS'sentence'
p2856
I6708
sS'haven'
p2857
I3844
sS'adequate'
p2858
I6709
sS'nullified'
p2859
I6710
sS'predecessor'
p2860
I6711
sS'do'
p2861
I121
sS'dd'
p2862
I2329
sS'railings'
p2863
I2330
sS'preferred'
p2864
I1050
sS'yielded'
p2865
I6713
sS'*t*-69'
p2866
I3974
sS'25,000'
p2867
I2127
sS'watson'
p2868
I2331
sS'*t*-61'
p2869
I3976
sS'*t*-60'
p2870
I3977
sS'*t*-63'
p2871
I6714
sS'du'
p2872
I6167
sS'*t*-65'
p2873
I3978
sS'*t*-64'
p2874
I3979
sS'*t*-67'
p2875
I3980
sS'*t*-66'
p2876
I3981
sS'infrequent'
p2877
I6716
sS'runs'
p2878
I1290
sS'covering'
p2879
I3982
sS'ravenswood'
p2880
I6717
sS'415'
p2881
I6718
sS'deborah'
p2882
I6719
sS'rung'
p2883
I6720
sS'equivalents'
p2884
I7714
sS'insurgents'
p2885
I6721
sS'prudential-bache'
p2886
I2332
sS'steal'
p2887
I6722
sS'secretary'
p2888
I1051
sS'1989-90'
p2889
I2925
sS'9.32'
p2890
I6723
sS'erroneous'
p2891
I6724
sS'inns'
p2892
I6725
sS'9.37'
p2893
I6726
sS'w.'
p2894
I2926
sS'observed'
p2895
I3983
sS'143.93'
p2896
I6727
sS'projections'
p2897
I6728
sS'cattle'
p2898
I6729
sS'discussions'
p2899
I1662
sS'scrutinizing'
p2900
I3985
sS'techniques'
p2901
I2333
sS'draws'
p2902
I6730
sS'away'
p2903
I615
sS'listeners'
p2904
I6731
sS'unable'
p2905
I2334
sS'cooperation'
p2906
I2927
sS'drawn'
p2907
I2928
sS'co.'
p2908
I128
sS'we'
p2909
I102
sS'terms'
p2910
I483
sS'wa'
p2911
I2929
sS'wo'
p2912
I702
sS'handful'
p2913
I6732
sS'wu'
p2914
I6733
sS'clues'
p2915
I3986
sS'42.1'
p2916
I6734
sS'convertible'
p2917
I805
sS'packages'
p2918
I1466
sS'42.5'
p2919
I4723
sS'received'
p2920
I543
sS'essentially'
p2921
I1467
sS'cow'
p2922
I6736
sS'brat'
p2923
I6737
sS'ill'
p2924
I2930
sS'kligman'
p2925
I6738
sS'red-blooded'
p2926
I6739
sS'siegal'
p2927
I6740
sS'receives'
p2928
I6741
sS'exceeds'
p2929
I6742
sS'requests'
p2930
I6743
sS'year-end'
p2931
I3987
sS'tone'
p2932
I5084
sS'non-core'
p2933
I6744
sS'1,620'
p2934
I6745
sS'*-50'
p2935
I3990
sS'*-51'
p2936
I3991
sS'tons'
p2937
I1160
sS'*-53'
p2938
I4744
sS'*-54'
p2939
I3992
sS'*-55'
p2940
I6747
sS'*-56'
p2941
I4746
sS'*-57'
p2942
I3993
sS'tony'
p2943
I3287
sS'*-59'
p2944
I3994
sS'telecommunications'
p2945
I2932
sS'chicago-style'
p2946
I6750
sS'engines'
p2947
I6751
sS'condemned'
p2948
I3995
sS'claiming'
p2949
I3996
sS'sachs'
p2950
I1663
sS'trockenbeerenauslesen'
p2951
I6752
sS'captive'
p2952
I6753
sS'obedient'
p2953
I5439
sS'dozens'
p2954
I2933
sS'duties'
p2955
I1468
sS'search-and-seizure'
p2956
I6755
sS'families'
p2957
I6756
sS'baum'
p2958
I1161
sS'disaster-assistance'
p2959
I6757
sS'0.16'
p2960
I6758
sS'all-cash'
p2961
I6759
sS'ogilvy'
p2962
I6760
sS'co-owner'
p2963
I3997
sS'unproven'
p2964
I7238
sS'applied'
p2965
I2934
sS'inhibit'
p2966
I6762
sS'has'
p2967
I38
sS'6.84'
p2968
I6763
sS'conviction'
p2969
I6764
sS'publicly'
p2970
I966
sS'air'
p2971
I1162
sS'aim'
p2972
I3998
sS'aid'
p2973
I880
sS'property'
p2974
I1962
sS'davenport'
p2975
I6765
sS'launched'
p2976
I806
sS'mistake'
p2977
I6766
sS'*t*-129'
p2978
I6767
sS'dobson'
p2979
I6768
sS'38.5'
p2980
I6769
sS'*t*-123'
p2981
I6770
sS'*t*-122'
p2982
I6771
sS'sticker'
p2983
I6772
sS'dumped'
p2984
I2335
sS'*t*-127'
p2985
I6773
sS'*t*-126'
p2986
I6774
sS'*t*-125'
p2987
I6775
sS'*t*-124'
p2988
I6776
sS'pre-cooked'
p2989
I6777
sS'tissue'
p2990
I6778
sS'world-wide'
p2991
I1963
sS'conn'
p2992
I3999
sS'wooing'
p2993
I6779
sS'confirmed'
p2994
I2336
sS'perform'
p2995
I3308
sS'jerry'
p2996
I2337
sS'american-style'
p2997
I6780
sS'sometimes-exhausting'
p2998
I6781
sS'grapple'
p2999
I6782
sS'indictment'
p3000
I6784
sS'bunny'
p3001
I6785
sS'independent'
p3002
I1664
sS'nih'
p3003
I4001
sS'inheritor'
p3004
I6786
sS'hang'
p3005
I4800
sS'evil'
p3006
I4002
sS'hand'
p3007
I1469
sS'norwegian'
p3008
I6788
sS'hans'
p3009
I6789
sS'446.62'
p3010
I6790
sS'blamed'
p3011
I2935
sS'self-regulatory'
p3012
I6791
sS'vermont'
p3013
I6792
sS'kept'
p3014
I1665
sS'whereby'
p3015
I6793
sS'1979'
p3016
I1666
sS'1977'
p3017
I1667
sS'1976'
p3018
I2338
sS'1975'
p3019
I4003
sS'humble'
p3020
I6794
sS'1973'
p3021
I6795
sS'1972'
p3022
I2339
sS'1971'
p3023
I4004
sS'1970'
p3024
I2340
sS'client'
p3025
I1470
sS'the'
p3026
I4
sS'37-a-share'
p3027
I6796
sS'quoted'
p3028
I1668
sS'8.19'
p3029
I6797
sS'thanks'
p3030
I6798
sS'victim'
p3031
I2936
sS'8.15'
p3032
I6799
sS'8.14'
p3033
I6800
sS'crookery'
p3034
I6801
sS'clamped'
p3035
I6802
sS'8.12'
p3036
I6803
sS'adding'
p3037
I2937
sS'hills'
p3038
I807
sS'1.39'
p3039
I6804
sS'fared'
p3040
I2938
sS'wright'
p3041
I2939
sS'belongs'
p3042
I4183
sS'transformed'
p3043
I6805
sS'board'
p3044
I126
sS'openings'
p3045
I4006
sS'expelled'
p3046
I2940
sS'freeport-mcmoran'
p3047
I1965
sS'editorials'
p3048
I6807
sS'fulham'
p3049
I4007
sS'injuring'
p3050
I6808
sS'barge'
p3051
I2341
sS'campeau'
p3052
I4008
sS'ginnie'
p3053
I4009
sS'designers'
p3054
I4010
sS'unfounded'
p3055
I6809
sS'disadvantage'
p3056
I6810
sS'securities'
p3057
I163
sS'534'
p3058
I6811
sS'night'
p3059
I1291
sS'lapses'
p3060
I6812
sS'security'
p3061
I1164
sS'reciting'
p3062
I6813
sS'cooled'
p3063
I6814
sS'webb'
p3064
I6815
sS'sends'
p3065
I6816
sS'9.82'
p3066
I6817
sS'zicklin'
p3067
I6818
sS'eyeing'
p3068
I6819
sS'born'
p3069
I6820
sS'productions'
p3070
I6821
sS'rill'
p3071
I6822
sS'glamorize'
p3072
I6823
sS'denies'
p3073
I4011
sS'do-it-yourself'
p3074
I6824
sS'comments'
p3075
I2941
sS'asking'
p3076
I1669
sS'denied'
p3077
I2342
sS'rubinfien'
p3078
I6825
sS'participation'
p3079
I6826
sS'columbus'
p3080
I6827
sS'marketing'
p3081
I703
sS'pose'
p3082
I6828
sS'graduates'
p3083
I6829
sS'restructuring'
p3084
I659
sS'plc'
p3085
I967
sS'architectural'
p3086
I6830
sS'graduated'
p3087
I6831
sS'post'
p3088
I1670
sS'nev.'
p3089
I2942
sS'properties'
p3090
I6832
sS'gartner'
p3091
I6833
sS'hackensack'
p3092
I6834
sS'rallying'
p3093
I6836
sS'acquire'
p3094
I1159
sS'newspapers'
p3095
I1966
sS'months'
p3096
I173
sS'banker'
p3097
I2343
sS'mahoney'
p3098
I4012
sS'dilemma'
p3099
I6837
sS'prisoners'
p3100
I6838
sS'beneficial'
p3101
I4013
sS'rendering'
p3102
I6839
sS'capped'
p3103
I2943
sS'balanced'
p3104
I6840
sS'21.1'
p3105
I6841
sS'legislation'
p3106
I582
sS'liquidated'
p3107
I6842
sS'fight'
p3108
I2944
sS'way'
p3109
I329
sS'editions'
p3110
I6843
sS'was'
p3111
I33
sS'war'
p3112
I1471
sS'interest-rate'
p3113
I2945
sS'sagging'
p3114
I6844
sS'becoming'
p3115
I1967
sS'somehow'
p3116
I6845
sS'glaxo'
p3117
I6846
sS'true'
p3118
I1671
sS'responding'
p3119
I4015
sS'food-shop'
p3120
I6847
sS'bromwich'
p3121
I4016
sS'maximum'
p3122
I6848
sS'crystal'
p3123
I2946
sS'replacement-car'
p3124
I6849
sS'unusually'
p3125
I6850
sS'inquiring'
p3126
I6851
sS'3.55'
p3127
I6852
sS'promises'
p3128
I4017
sS'moore'
p3129
I2948
sS'-rrb-'
p3130
I90
sS'request'
p3131
I1788
sS'bell-ringing'
p3132
I6231
sS'evidence'
p3133
I751
sS'promised'
p3134
I6855
sS'prayer'
p3135
I6856
sS'five-point'
p3136
I4018
sS'harassment'
p3137
I6857
sS'physical'
p3138
I4964
sS'newsstands'
p3139
I6858
sS'stake'
p3140
I484
sS'topped'
p3141
I6859
sS'reality'
p3142
I2345
sS'negotiators'
p3143
I4019
sS'interested'
p3144
I1968
sS'holding'
p3145
I485
sS'test'
p3146
I238
sS'limited-partnership'
p3147
I4020
sS'hoffman'
p3148
I6860
sS'most-likely-successor'
p3149
I6861
sS'brothers'
p3150
I4021
sS'mulling'
p3151
I6862
sS'welcome'
p3152
I4976
sS'concurrent'
p3153
I6864
sS'school-sponsored'
p3154
I6865
sS'scores'
p3155
I1052
sS'two-time-losers'
p3156
I7254
sS'radioactivity'
p3157
I6866
sS'signore'
p3158
I6867
sS'flag'
p3159
I4023
sS'together'
p3160
I1292
sS'beds'
p3161
I6868
sS'loyal'
p3162
I6869
sS'videocassette'
p3163
I4024
sS'n.j.'
p3164
I1472
sS'precedent'
p3165
I2346
sS'concept'
p3166
I2347
sS'broke'
p3167
I7255
sS'switched'
p3168
I4025
sS'strengthened'
p3169
I6380
sS'global'
p3170
I1672
sS'35.7'
p3171
I4026
sS'drop-off'
p3172
I6872
sS'battle'
p3173
I1165
sS'devoted'
p3174
I6874
sS'norwalk'
p3175
I6875
sS'certainly'
p3176
I2348
sS'killings'
p3177
I6876
sS'zone'
p3178
I4027
sS'compensate'
p3179
I4028
sS'rhythm'
p3180
I4029
sS'disapproved'
p3181
I6877
sS'division'
p3182
I431
sS'charles'
p3183
I1166
sS'boosting'
p3184
I6878
sS'liability'
p3185
I4128
sS'automobiles'
p3186
I2950
sS'vegas'
p3187
I2951
sS'microprocessors'
p3188
I6880
sS'polystyrene'
p3189
I6881
sS'10-year'
p3190
I1969
sS'trouble'
p3191
I2164
sS'one-fifth'
p3192
I6883
sS'aggressively'
p3193
I4031
sS'perceived'
p3194
I4032
sS'presented'
p3195
I2952
sS'altering'
p3196
I6884
sS'turns'
p3197
I2953
sS'51.25'
p3198
I6885
sS'fragile'
p3199
I4033
sS'1,050,000'
p3200
I6886
sS'cray-3'
p3201
I1207
sS'sidewalk'
p3202
I1970
sS'jurisdictional'
p3203
I6888
sS'upper'
p3204
I6889
sS'revolution'
p3205
I6890
sS'regret'
p3206
I4034
sS'sharedata'
p3207
I2954
sS'car-care'
p3208
I6891
sS'cost'
p3209
I704
sS'cargo'
p3210
I4036
sS'purchasers'
p3211
I4037
sS'curse'
p3212
I6892
sS'appear'
p3213
I2349
sS'trivial'
p3214
I6893
sS'assistance'
p3215
I1473
sS'dunkin'
p3216
I6894
sS'shares'
p3217
I92
sS'nine'
p3218
I884
sS'appeal'
p3219
I1474
sS'*t*-43'
p3220
I4038
sS'*t*-42'
p3221
I5049
sS'*t*-41'
p3222
I4039
sS'*t*-40'
p3223
I4040
sS'*t*-47'
p3224
I4041
sS'*t*-46'
p3225
I6898
sS'*t*-45'
p3226
I4042
sS'*t*-44'
p3227
I4043
sS'cos.'
p3228
I6899
sS'*t*-49'
p3229
I4044
sS'*t*-48'
p3230
I4045
sS'genel'
p3231
I4046
sS'7.79'
p3232
I6435
sS'rubicam'
p3233
I4047
sS'teaches'
p3234
I6900
sS'teacher'
p3235
I935
sS'change'
p3236
I511
sS'buck'
p3237
I6901
sS'exemption'
p3238
I6902
sS'59.6'
p3239
I6903
sS'burt'
p3240
I4430
sS'59.9'
p3241
I6904
sS'domaine'
p3242
I6905
sS'trial'
p3243
I1673
sS'usually'
p3244
I1293
sS'pillow'
p3245
I6906
sS'430'
p3246
I6907
sS'*-17'
p3247
I6359
sS'retired'
p3248
I2350
sS'extra'
p3249
I2351
sS'lending'
p3250
I4049
sS'markey'
p3251
I1674
sS'embarrassing'
p3252
I6910
sS'fbi'
p3253
I6911
sS'should'
p3254
I287
sS'market'
p3255
I61
sS'angelo'
p3256
I6913
sS'credit-rating'
p3257
I6914
sS'prove'
p3258
I1167
sS'live'
p3259
I2955
sS'jam'
p3260
I6915
sS'marginally'
p3261
I4050
sS'club'
p3262
I2352
sS'minimum-wage'
p3263
I6916
sS'subindustry'
p3264
I6917
sS'organizations'
p3265
I3441
sS'slogan'
p3266
I6919
sS'ibm'
p3267
I2353
sS'defeats'
p3268
I6920
sS'car'
p3269
I752
sS'ibc'
p3270
I6921
sS'cat'
p3271
I1675
sS'labeled'
p3272
I4051
sS'can'
p3273
I107
sS'cab'
p3274
I6922
sS'trans'
p3275
I6923
sS'pretoria'
p3276
I4052
sS'stimulating'
p3277
I4053
sS'heart'
p3278
I2956
sS'citizens'
p3279
I6924
sS'fracturing'
p3280
I6925
sS'expanding'
p3281
I2677
sS'chip'
p3282
I2354
sS'topix'
p3283
I6926
sS'1980s'
p3284
I1971
sS'heard'
p3285
I2355
sS'posing'
p3286
I6928
sS'*-78'
p3287
I6929
sS'*-79'
p3288
I5106
sS'*-76'
p3289
I4054
sS'handle'
p3290
I6931
sS'*-74'
p3291
I4055
sS'*-72'
p3292
I4056
sS'*-73'
p3293
I3450
sS'*-70'
p3294
I4057
sS'*-71'
p3295
I4058
sS'bankrupt'
p3296
I6932
sS'fuming'
p3297
I6933
sS'discussion'
p3298
I4059
sS'spreads'
p3299
I5336
sS'takings'
p3300
I5998
sS'unrealistically'
p3301
I6935
sS'multibillion-dollar'
p3302
I6936
sS'entrench'
p3303
I6937
sS'photography'
p3304
I6938
sS'economy'
p3305
I432
sS'product'
p3306
I512
sS'sacrifice'
p3307
I6940
sS'southern'
p3308
I1973
sS'invariably'
p3309
I6941
sS'produce'
p3310
I1294
sS'islands'
p3311
I6942
sS'court'
p3312
I210
sS'nomination'
p3313
I2356
sS'lifting'
p3314
I6944
sS'goal'
p3315
I5135
sS'eurodollars'
p3316
I6945
sS'remember'
p3317
I6946
sS'killeen'
p3318
I6947
sS'12.97'
p3319
I6948
sS'futures'
p3320
I144
sS'accelerated'
p3321
I2957
sS'offend'
p3322
I6949
sS'no.'
p3323
I2357
sS'serving'
p3324
I4061
sS'synergistics'
p3325
I5133
sS'friction'
p3326
I6950
sS'consulting'
p3327
I2238
sS'5.276'
p3328
I6951
sS'playful'
p3329
I6952
sS'ended'
p3330
I433
sS'tablets'
p3331
I6953
sS'stayed'
p3332
I7270
sS'cold'
p3333
I6955
sS'still'
p3334
I239
sS'birds'
p3335
I6956
sS'hampered'
p3336
I7271
sS'ariail'
p3337
I6958
sS'acknowledge'
p3338
I6959
sS'forms'
p3339
I1296
sS'window'
p3340
I5079
sS'miklos'
p3341
I6960
sS'correspondence'
p3342
I6961
sS'halt'
p3343
I2358
sS'disparate'
p3344
I6962
sS'100,000'
p3345
I1677
sS'sweetened'
p3346
I4064
sS'introduce'
p3347
I1678
sS'1955'
p3348
I6963
sS'1956'
p3349
I6964
sS'hale'
p3350
I6965
sS'1953'
p3351
I6966
sS'half'
p3352
I602
sS'not'
p3353
I75
sS'now'
p3354
I134
sS'provision'
p3355
I1297
sS'discuss'
p3356
I1974
sS'nor'
p3357
I969
sS'enacted'
p3358
I4065
sS'5,699'
p3359
I6968
sS'droz'
p3360
I6969
sS'first-rate'
p3361
I6970
sS'january'
p3362
I1029
sS'drop'
p3363
I753
sS'*t*-105'
p3364
I6972
sS'*t*-104'
p3365
I6973
sS'*t*-107'
p3366
I6974
sS'wong'
p3367
I6975
sS'*t*-101'
p3368
I6976
sS'stockholm'
p3369
I4066
sS'*t*-103'
p3370
I6977
sS'*t*-102'
p3371
I6978
sS'entirely'
p3372
I2359
sS'*t*-109'
p3373
I6979
sS'*t*-108'
p3374
I6980
sS'unloaded'
p3375
I6981
sS'fixed-price'
p3376
I3591
sS'el'
p3377
I4067
sS'louisiana-pacific'
p3378
I6982
sS'fired'
p3379
I1854
sS'ed'
p3380
I6983
sS'kane'
p3381
I4068
sS'directing'
p3382
I6984
sS'ec'
p3383
I6985
sS'bradley'
p3384
I2958
sS'fires'
p3385
I6986
sS'year'
p3386
I56
sS'naming'
p3387
I5171
sS'calling'
p3388
I6988
sS'pills'
p3389
I6989
sS'8.75'
p3390
I6990
sS'shown'
p3391
I6991
sS'opened'
p3392
I1476
sS'space'
p3393
I1168
sS'outcry'
p3394
I6992
sS'showa'
p3395
I6993
sS'increase'
p3396
I336
sS'mich.-based'
p3397
I6994
sS'stuff'
p3398
I6995
sS'fargo'
p3399
I6996
sS'receiving'
p3400
I2959
sS'shows'
p3401
I1170
sS'rebuilding'
p3402
I6997
sS'e.'
p3403
I1298
sS'cars'
p3404
I544
sS'divergence'
p3405
I6999
sS'advantages'
p3406
I4069
sS'rebel'
p3407
I7001
sS'carl'
p3408
I7002
sS'ohio'
p3409
I1282
sS'marina'
p3410
I7003
sS'obligation'
p3411
I4070
sS'cara'
p3412
I4071
sS'marine'
p3413
I1054
sS'inevitable'
p3414
I7004
sS'card'
p3415
I486
sS'care'
p3416
I808
sS'milestones'
p3417
I5236
sS'132,000'
p3418
I7005
sS'deprivation'
p3419
I7006
sS'transition'
p3420
I2961
sS'british'
p3421
I1055
sS'styles'
p3422
I7007
sS'nonprofit'
p3423
I3516
sS'entrusted'
p3424
I3517
sS'intecknings'
p3425
I5265
sS'smelting'
p3426
I7010
sS'blind'
p3427
I3519
sS'benefited'
p3428
I2962
sS'striking'
p3429
I4072
sS'omitted'
p3430
I4073
sS'variables'
p3431
I7012
sS'municipality'
p3432
I7013
sS'yourself'
p3433
I2963
sS'*t*-164'
p3434
I7014
sS'common-law'
p3435
I7015
sS'directly'
p3436
I1679
sS'impossible'
p3437
I2964
sS'ring'
p3438
I2219
sS'drove'
p3439
I4074
sS'tomorrow'
p3440
I1976
sS'size'
p3441
I1057
sS'sheep'
p3442
I1977
sS'737.5'
p3443
I7016
sS'sheet'
p3444
I2966
sS'silent'
p3445
I4075
sS'caught'
p3446
I2967
sS'breed'
p3447
I5315
sS'reinvestment'
p3448
I7018
sS'households'
p3449
I4076
sS'free-lance'
p3450
I7019
sS'cost-effective'
p3451
I7021
sS'friend'
p3452
I2362
sS'dolan'
p3453
I5340
sS'63-year-old'
p3454
I7023
sS'mostly'
p3455
I1680
sS'that'
p3456
I15
sS'pittsburgh'
p3457
I4077
sS'taxation'
p3458
I7024
sS'eliminates'
p3459
I2968
sS'unstinting'
p3460
I7025
sS'inmates'
p3461
I7026
sS'thai'
p3462
I5359
sS'peck'
p3463
I7027
sS'than'
p3464
I62
sS'titans'
p3465
I7028
sS'professionals'
p3466
I2363
sS'television'
p3467
I1300
sS'deluge'
p3468
I7283
sS'index-related'
p3469
I5375
sS'eakle'
p3470
I4079
sS'optimism'
p3471
I4080
sS'monopolies'
p3472
I7030
sS'apples'
p3473
I7031
sS'troublesome'
p3474
I7032
sS'investors'
p3475
I154
sS'remained'
p3476
I1979
sS'premier'
p3477
I4081
sS'overnight'
p3478
I7284
sS'81.8'
p3479
I7035
sS'investment-grade'
p3480
I2364
sS'distorted'
p3481
I7036
sS'anger'
p3482
I7037
sS'darkhorse'
p3483
I2749
sS'recover'
p3484
I4082
sS'slab'
p3485
I7039
sS'offering'
p3486
I434
sS'veteran'
p3487
I4083
sS'manufacturers'
p3488
I1681
sS'equipment'
p3489
I1058
sS'mr.'
p3490
I32
sS'objective'
p3491
I2969
sS'begin'
p3492
I1171
sS'30-point'
p3493
I4084
sS'price'
p3494
I135
sS'pharaoh'
p3495
I7042
sS'gencorp'
p3496
I2970
sS'sept.30'
p3497
I5471
sS'america'
p3498
I616
sS'rey\\/fawcett'
p3499
I7044
sS'reform'
p3500
I2096
sS'steady'
p3501
I1600
sS'mrs'
p3502
I5498
sS'intrusions'
p3503
I7047
sS'neuberger'
p3504
I1682
sS'n.m.'
p3505
I4717
sS'professional'
p3506
I2365
sS'typically'
p3507
I1981
sS'filing'
p3508
I1477
sS'3.75'
p3509
I4086
sS'german'
p3510
I2971
sS'syndicate'
p3511
I4441
sS'discovered'
p3512
I1683
sS'fifth'
p3513
I1684
sS'geography'
p3514
I2244
sS'title'
p3515
I7050
sS'saints'
p3516
I5547
sS'texture'
p3517
I7052
sS'staid'
p3518
I5551
sS'only'
p3519
I122
sS'sierra'
p3520
I4089
sS'alcoholism'
p3521
I7054
sS'interstate'
p3522
I1982
sS'samuel'
p3523
I7056
sS'soon'
p3524
I1067
sS'leon'
p3525
I6039
sS'celebrate'
p3526
I7058
sS'builds'
p3527
I7059
sS'leather'
p3528
I7060
sS'reorganized'
p3529
I7061
sS'scientist'
p3530
I4091
sS'prevents'
p3531
I4445
sS'1973-75'
p3532
I7062
sS'husband'
p3533
I2972
sS'salomon'
p3534
I2366
sS'*t*-98'
p3535
I7063
sS'chinese-american'
p3536
I7064
sS'elected'
p3537
I1685
sS'namely'
p3538
I2973
sS'actively'
p3539
I4093
sS'sandoz'
p3540
I7065
sS'concern'
p3541
I256
sS'suspects'
p3542
I4095
sS'valrico'
p3543
I5664
sS'workbooks'
p3544
I7067
sS'3'
I545
sS'between'
p3545
I280
sS'import'
p3546
I1686
sS'justified'
p3547
I7068
sS'dummies'
p3548
I7289
sS'j.l.'
p3549
I4096
sS'notice'
p3550
I7070
sS'taccetta'
p3551
I4097
sS'school-improvement'
p3552
I7071
sS'article'
p3553
I706
sS'scripps'
p3554
I7072
sS'perceptions'
p3555
I7073
sS'taxpayer'
p3556
I7074
sS'mona'
p3557
I7075
sS'ballpark'
p3558
I4098
sS'enabling'
p3559
I4099
sS'mont'
p3560
I7076
sS'341.20'
p3561
I7077
sS'buy-back'
p3562
I3660
sS'wheels'
p3563
I7079
sS'comes'
p3564
I1478
sS'nearby'
p3565
I4100
sS'impediments'
p3566
I7080
sS'passenger'
p3567
I2760
sS'highlight'
p3568
I7081
sS'50-50'
p3569
I7082
sS'oxnard'
p3570
I2367
sS'salinas'
p3571
I3669
sS'learning'
p3572
I970
sS'moreover'
p3573
I1139
sS'muzzling'
p3574
I4102
sS'oliver'
p3575
I4103
sS'rebuild'
p3576
I7084
sS'mainframe'
p3577
I7938
sS'derchin'
p3578
I7295
sS'extramarital'
p3579
I7086
sS'cared'
p3580
I7087
sS'drop-in'
p3581
I7088
sS'zaharah'
p3582
I7089
sS'emigres'
p3583
I7090
sS'c-130'
p3584
I5820
sS'systems'
p3585
I1172
sS'shortages'
p3586
I5835
sS'subjecting'
p3587
I7093
sS'observers'
p3588
I2368
sS'external'
p3589
I7094
sS'abridging'
p3590
I7095
sS'sticky'
p3591
I7096
sS'countless'
p3592
I7097
sS'developing'
p3593
I2974
sS'these'
p3594
I129
sS'strong-willed'
p3595
I4105
sS'steinberg'
p3596
I1479
sS'editorial'
p3597
I1983
sS'exercisable'
p3598
I4106
sS'zenith'
p3599
I4107
sS'metric'
p3600
I4108
sS'skittishness'
p3601
I7098
sS'anxieties'
p3602
I4109
sS'gringo'
p3603
I7099
sS'bias'
p3604
I4110
sS'signaling'
p3605
I7377
sS'return'
p3606
I453
sS'mediocre'
p3607
I7101
sS'worry'
p3608
I1984
sS'develop'
p3609
I2975
sS'media'
p3610
I1059
sS'11.6'
p3611
I7103
sS'dead-eyed'
p3612
I7104
sS'court-ordered'
p3613
I7105
sS'scannell'
p3614
I4111
sS'inquiry'
p3615
I2976
sS'angered'
p3616
I7106
sS'20-stock'
p3617
I7107
sS'document'
p3618
I7108
sS'noble'
p3619
I4112
sS'foam'
p3620
I7109
sS'respected'
p3621
I2977
sS'anecdotal'
p3622
I7110
sS'mistrials'
p3623
I7111
sS'tradition'
p3624
I5967
sS'mentally'
p3625
I4113
sS'complained'
p3626
I2369
sS'malizia'
p3627
I7113
sS'charges'
p3628
I660
sS'constitutional'
p3629
I2370
sS'breezy'
p3630
I7114
sS'agreeing'
p3631
I7115
sS'severe'
p3632
I2978
sS'congressmen'
p3633
I4114
sS'alleviate'
p3634
I7116
sS'coordinate'
p3635
I7117
sS'laboratories'
p3636
I4115
sS'charged'
p3637
I4116
sS'*-8'
p3638
I4117
sS'*-9'
p3639
I4118
sS'nondurable'
p3640
I7118
sS'livestock'
p3641
I7119
sS'*-2'
p3642
I34
sS'*-3'
p3643
I80
sS'bottlenecks'
p3644
I7120
sS'*-1'
p3645
I11
sS'superconductors'
p3646
I1272
sS'*-7'
p3647
I2980
sS'*-4'
p3648
I330
sS'*-5'
p3649
I1060
sS'anticipates'
p3650
I3686
sS'ounces'
p3651
I2981
sS'touch'
p3652
I2982
sS'speed'
p3653
I2983
sS'renewed'
p3654
I2826
sS'thinking'
p3655
I2984
sS'improvement'
p3656
I1480
sS'lender'
p3657
I7121
sS'1,400'
p3658
I7122
sS'treatment'
p3659
I1301
sS'ca'
p3660
I1048
sS'disproportionate'
p3661
I7123
sS'real'
p3662
I618
sS'77.56'
p3663
I6058
sS'nielsen'
p3664
I7126
sS'spectacular'
p3665
I7127
sS'read'
p3666
I1274
sS'*-104'
p3667
I7129
sS'stung'
p3668
I4120
sS'*-106'
p3669
I7130
sS'earle'
p3670
I7131
sS'*-100'
p3671
I7132
sS'*-103'
p3672
I7133
sS'*-102'
p3673
I4121
sS'early'
p3674
I274
sS'politely'
p3675
I7134
sS'coxon'
p3676
I2985
sS'using'
p3677
I809
sS'execution'
p3678
I2373
sS'recipient'
p3679
I3605
sS'0.54'
p3680
I7135
sS'rear'
p3681
I7136
sS'ruled'
p3682
I2374
sS'fractionally'
p3683
I4123
sS'heightened'
p3684
I7137
sS'pounds'
p3685
I2986
sS'suppliers'
p3686
I2987
sS'one-month'
p3687
I4124
sS'annually'
p3688
I2375
sS'trailed'
p3689
I7138
sS'benefit'
p3690
I2988
sS'133.8'
p3691
I7139
sS'downward'
p3692
I4125
sS'endorsed'
p3693
I7140
sS'exposed'
p3694
I4126
sS'mcgraw-hill'
p3695
I1985
sS'unraveling'
p3696
I7141
sS'faulding'
p3697
I3258
sS'capability'
p3698
I7304
sS'recorded'
p3699
I4129
sS'conservative'
p3700
I2989
sS'deficit'
p3701
I1688
sS'recorder'
p3702
I7143
sS'arabia'
p3703
I2990
sS'assembly'
p3704
I3799
sS'business'
p3705
I113
sS'sixth'
p3706
I2991
sS'equivalent'
p3707
I2992
sS'balked'
p3708
I7145
sS'1933'
p3709
I7146
sS'credits'
p3710
I4130
sS'valhi'
p3711
I4131
sS'assemble'
p3712
I6222
sS'francis'
p3713
I3807
sS'electric-utility'
p3714
I7149
sS'emasculate'
p3715
I7150
sS'comparison'
p3716
I7151
sS'central'
p3717
I1302
sS'easy-to-read'
p3718
I7152
sS"'d"
p3719
I1986
sS'wolf'
p3720
I2993
sS'greatly'
p3721
I4132
sS'intent'
p3722
I2994
sS'heavy'
p3723
I1689
sS'outlook'
p3724
I6265
sS'protests'
p3725
I4234
sS'flim-flammery'
p3726
I7155
sS'more-advanced'
p3727
I6267
sS'involvement'
p3728
I7157
sS'shipbuilding'
p3729
I4134
sS'heated'
p3730
I4135
sS'operator'
p3731
I2555
sS'shrinking'
p3732
I7159
sS'your'
p3733
I369
sS'stare'
p3734
I7160
sS'log'
p3735
I7161
sS'prepare'
p3736
I7162
sS'area'
p3737
I1303
sS'assumed'
p3738
I3837
sS'minn.'
p3739
I7164
sS'stark'
p3740
I7165
sS'grange'
p3741
I7166
sS'los'
p3742
I863
sS'72.7'
p3743
I7168
sS'low'
p3744
I435
sS'lot'
p3745
I1061
sS'computer-assisted'
p3746
I4136
sS'somerset'
p3747
I7169
sS'ilminster'
p3748
I7170
sS'43.875'
p3749
I7171
sS'billion'
p3750
I71
sS'pitcher'
p3751
I7172
sS'cutrer'
p3752
I3852
sS'najarian'
p3753
I7174
sS'recouped'
p3754
I7175
sS'two-thirds'
p3755
I4137
sS'trying'
p3756
I546
sS'copied'
p3757
I7176
sS'aktiebolaget'
p3758
I7177
sS'ingersoll-rand'
p3759
I6364
sS'hire'
p3760
I2995
sS'fraud'
p3761
I4138
sS'circulation'
p3762
I1062
sS'stanford'
p3763
I4139
sS'default'
p3764
I2376
sS'receptive'
p3765
I7179
sS'appliance'
p3766
I7180
sS'miguel'
p3767
I7181
sS'high-volume'
p3768
I7182
sS'define'
p3769
I7183
sS'605'
p3770
I4140
sS'cartons'
p3771
I7184
sS'600'
p3772
I2996
sS'describe'
p3773
I7185
sS'moved'
p3774
I1942
sS'sales'
p3775
I120
sS'moves'
p3776
I1987
sS'hospitals'
p3777
I7187
sS'yon'
p3778
I7188
sS'sulaiman'
p3779
I7189
sS'79'
p3780
I7190
sS'credibility'
p3781
I4141
sS'storage'
p3782
I4142
sS'hobbyists'
p3783
I7191
sS'mathematics'
p3784
I4143
sS'you'
p3785
I109
sS'poor'
p3786
I698
sS'drift'
p3787
I7192
sS'peal'
p3788
I7194
sS'peak'
p3789
I4145
sS'coverage'
p3790
I7195
sS'perignon'
p3791
I7196
sS'pool'
p3792
I7197
sS'building'
p3793
I810
sS'3-4'
p3794
I7198
sS'repay'
p3795
I7199
sS'restored'
p3796
I7200
sS'prying'
p3797
I7201
sS'overseas'
p3798
I971
sS'blue-chip'
p3799
I3011
sS'seven-million-ton'
p3800
I7202
sS'pointing'
p3801
I4146
sS'month'
p3802
I248
sS'deadline'
p3803
I4147
sS'publish'
p3804
I7203
sS'*t*-220'
p3805
I7204
sS'duty-free'
p3806
I2378
sS'atlanta'
p3807
I1988
sS'zuckerman'
p3808
I5891
sS'griffin'
p3809
I7206
sS'corps'
p3810
I2379
sS'pledged'
p3811
I7207
sS'foster'
p3812
I1482
sS'fizzled'
p3813
I7208
sS'dominus'
p3814
I7209
sS'clerics'
p3815
I7210
sS'dominated'
p3816
I2997
sS'confidential'
p3817
I2998
sS'divisions'
p3818
I3282
sS'very'
p3819
I340
sS'supercomputer'
p3820
I2380
sS'decide'
p3821
I1989
sS'begot'
p3822
I7211
sS'--'
p3823
I51
sS'louis'
p3824
I1063
sS'atsushi'
p3825
I7213
sS'circuit'
p3826
I1305
sS'kondo'
p3827
I7214
sS'cash-rich'
p3828
I7215
sS'neoprene'
p3829
I7216
sS'3.18'
p3830
I3000
sS'3.19'
p3831
I7217
sS'gayle'
p3832
I7218
sS'streets'
p3833
I1483
sS'3.16'
p3834
I7219
sS'norwick'
p3835
I7321
sS'foreign-stock'
p3836
I7220
sS'cues'
p3837
I7223
sS'94.8'
p3838
I7224
sS'consumers'
p3839
I1064
sS'investing'
p3840
I3001
sS'emotions'
p3841
I7225
sS'94.2'
p3842
I7226
sS'witnesses'
p3843
I7227
sS'*-123'
p3844
I5232
sS'191.9'
p3845
I7228
sS'certificates'
p3846
I4149
sS'eaton'
p3847
I7229
sS'learned'
p3848
I2382
sS'karns'
p3849
I4150
sS'raton'
p3850
I4151
sS'multinational'
p3851
I7230
sS'turmoil'
p3852
I4152
sS'loose'
p3853
I7232
sS'modify'
p3854
I4154
sS'answers'
p3855
I1065
sS'continuingly'
p3856
I7233
sS'tracks'
p3857
I7234
sS'pub'
p3858
I7328
sS'excess'
p3859
I4155
sS'iras'
p3860
I7236
sS'spielvogel'
p3861
I7237
sS'strong'
p3862
I515
sS'colored'
p3863
I6761
sS'ahead'
p3864
I1306
sS'inspired'
p3865
I4156
sS'losses'
p3866
I882
sS'exceptionally'
p3867
I4157
sS'amount'
p3868
I617
sS'advertising'
p3869
I1066
sS'family'
p3870
I461
sS'64-year-old'
p3871
I4158
sS'requiring'
p3872
I4159
sS'cosmetic'
p3873
I4160
sS'tendered'
p3874
I3003
sS'3,250,000'
p3875
I7240
sS'aimed'
p3876
I1173
sS'trained'
p3877
I4161
sS'toys'
p3878
I7241
sS'chunks'
p3879
I7242
sS'actress'
p3880
I7243
sS'334.5'
p3881
I7244
sS'conventional'
p3882
I1990
sS'takes'
p3883
I1174
sS'answered'
p3884
I7245
sS'one-day'
p3885
I4163
sS'contains'
p3886
I7246
sS'chaotic'
p3887
I7247
sS'unpleasant'
p3888
I7248
sS'taken'
p3889
I707
sS'brunswick'
p3890
I7249
sS'linden'
p3891
I7250
sS'lowering'
p3892
I4164
sS'erode'
p3893
I7251
sS'fast-food'
p3894
I2383
sS'jr.'
p3895
I883
sS'regrettable'
p3896
I7252
sS'schlemmer'
p3897
I7253
sS'instrumental'
p3898
I4022
sS'leming'
p3899
I4165
sS'duchossois'
p3900
I6870
sS'underwriter'
p3901
I1991
sS'mounted'
p3902
I5021
sS'producing'
p3903
I2384
sS'helped'
p3904
I972
sS'drearier'
p3905
I7257
sS'offender'
p3906
I4166
sS'landfills'
p3907
I7259
sS'nebraska'
p3908
I6895
sS'peals'
p3909
I3704
sS'reshaping'
p3910
I4167
sS'cathryn'
p3911
I4168
sS'history'
p3912
I885
sS'hhs'
p3913
I3004
sS'fundamentalist'
p3914
I4169
sS'deryck'
p3915
I7261
sS'pushes'
p3916
I7262
sS'adviser'
p3917
I1992
sS'*t*-17'
p3918
I4170
sS'pushed'
p3919
I3005
sS'best-seller'
p3920
I7263
sS'dompierre'
p3921
I7264
sS'partner'
p3922
I1690
sS'fuentes'
p3923
I6930
sS'lacks'
p3924
I4171
sS'species'
p3925
I7266
sS'f.'
p3926
I3006
sS'firmly'
p3927
I7267
sS'processors'
p3928
I4172
sS'waivers'
p3929
I7268
sS'dust-up'
p3930
I7269
sS'ratified'
p3931
I6954
sS'incisions'
p3932
I6957
sS'reject'
p3933
I7272
sS'rapists'
p3934
I7273
sS'ft'
p3935
I7274
sS'tried'
p3936
I1993
sS'derived'
p3937
I7275
sS'screenwriters'
p3938
I7276
sS'texas-based'
p3939
I7277
sS'denial'
p3940
I7278
sS'fe'
p3941
I7279
sS'reddington'
p3942
I7280
sS'outdistanced'
p3943
I7281
sS'non-religious'
p3944
I7282
sS'a'
I8
sS'clairton'
p3945
I4078
sS'bugs'
p3946
I7033
sS'anytime'
p3947
I4173
sS'renewing'
p3948
I7285
sS'gloomy'
p3949
I7286
sS'deterioration'
p3950
I4174
sS'banks'
p3951
I184
sS'defying'
p3952
I7287
sS'materialistic'
p3953
I4175
sS'help'
p3954
I275
sS'charities'
p3955
I4090
sS'held'
p3956
I547
sS'95,142'
p3957
I7288
sS'committee'
p3958
I436
sS'committed'
p3959
I3007
sS'cardiovascular'
p3960
I7069
sS'brightened'
p3961
I7290
sS'alurralde'
p3962
I7291
sS'kurland'
p3963
I4176
sS'fined'
p3964
I583
sS'botched'
p3965
I7292
sS'reluctance'
p3966
I7293
sS'actually'
p3967
I2385
sS'*t*-86'
p3968
I7294
sS'*t*-85'
p3969
I7085
sS'*t*-83'
p3970
I7296
sS'disclosed'
p3971
I754
sS'*t*-81'
p3972
I7297
sS'*t*-80'
p3973
I7298
sS'factories'
p3974
I7256
sS'fines'
p3975
I2386
sS'adrs'
p3976
I3008
sS'evening'
p3977
I2387
sS'food'
p3978
I619
sS'awarding'
p3979
I7299
sS'anticipated'
p3980
I1994
sS'commodore'
p3981
I5415
sS'foot'
p3982
I2388
sS'hammersmith'
p3983
I2389
sS'desperately'
p3984
I7301
sS'ctbs'
p3985
I5904
sS'fully'
p3986
I973
sS'semiannual'
p3987
I4177
sS'bless'
p3988
I7142
sS'stopped'
p3989
I1484
sS'dominating'
p3990
I7306
sS'obligated'
p3991
I4178
sS'trailer'
p3992
I7307
sS'referred'
p3993
I1995
sS'barrels'
p3994
I1691
sS'transcribe'
p3995
I7308
sS'neil'
p3996
I4179
sS'yoshihashi'
p3997
I7309
sS'blank'
p3998
I7310
sS'positioned'
p3999
I4180
sS'moleculon'
p4000
I3009
sS'bickering'
p4001
I7311
sS'kidnapping'
p4002
I7313
sS'beyond'
p4003
I2391
sS'absurdity'
p4004
I7314
sS'event'
p4005
I3010
sS'dominates'
p4006
I7315
sS'robert'
p4007
I404
sS'since'
p4008
I187
sS'testify'
p4009
I7316
sS'douglas'
p4010
I1996
sS'1,460'
p4011
I7317
sS'158,666'
p4012
I7318
sS'safety'
p4013
I370
sS'7'
I620
sS'issue'
p4014
I174
sS'*-129'
p4015
I7320
sS'*-128'
p4016
I4148
sS'earns'
p4017
I2381
sS'bass'
p4018
I3012
sS'favored'
p4019
I3002
sS'*-122'
p4020
I7323
sS'*-121'
p4021
I7324
sS'*-120'
p4022
I7325
sS'*-127'
p4023
I7326
sS'*-126'
p4024
I7327
sS'*-125'
p4025
I7235
sS'houses'
p4026
I1485
sS'reason'
p4027
I1307
sS'base'
p4028
I1692
sS'brightest'
p4029
I7329
sS'ask'
p4030
I2393
sS'matthews'
p4031
I7330
sS'earliest'
p4032
I7331
sS'curtailed'
p4033
I7332
sS'unresolved'
p4034
I7333
sS'launch'
p4035
I1997
sS'broad-based'
p4036
I7334
sS'american'
p4037
I157
sS'expecting'
p4038
I3013
sS'businessmen'
p4039
I7335
sS'leading'
p4040
I1019
sS'scheduled'
p4041
I782
sS'interviews'
p4042
I7336
sS'danzig'
p4043
I7337
sS'watchdogs'
p4044
I7339
sS'reflected'
p4045
I2394
sS'morita'
p4046
I4182
sS'3.253'
p4047
I7341
sS'st.'
p4048
I811
sS'kidder'
p4049
I3014
sS'station'
p4050
I4184
sS'hundred'
p4051
I3015
sS'bowed'
p4052
I4185
sS'selling'
p4053
I1068
sS'ncr'
p4054
I7342
sS'dorrance'
p4055
I2397
sS'authors'
p4056
I2398
sS'taxable'
p4057
I4186
sS'hummerstone'
p4058
I4187
sS'financing'
p4059
I886
sS'grew'
p4060
I2399
sS'performers'
p4061
I7344
sS'state-owned'
p4062
I4188
sS'scandinavian'
p4063
I7345
sS'store'
p4064
I4190
sS'toward'
p4065
I2400
sS'shirts'
p4066
I5902
sS'mickey'
p4067
I7347
sS'charlotte'
p4068
I1998
sS'affirmative'
p4069
I7349
sS'lauderhill'
p4070
I7350
sS'3.625'
p4071
I7351
sS'substantial'
p4072
I1693
sS'perestroika'
p4073
I7352
sS'150-point'
p4074
I7353
sS'fairlawn'
p4075
I7354
sS'cumbersome'
p4076
I7355
sS'karl'
p4077
I7356
sS'ratings'
p4078
I1308
sS'nationale'
p4079
I7635
sS'77.70'
p4080
I7357
sS'speculative'
p4081
I3016
sS'salable'
p4082
I7358
sS'scotland'
p4083
I7359
sS'officers'
p4084
I4191
sS'353'
p4085
I7360
sS'experienced'
p4086
I7361
sS'quote'
p4087
I7362
sS'approves'
p4088
I7363
sS'quota'
p4089
I3017
sS'freddie'
p4090
I5903
sS'hired'
p4091
I2402
sS'85.7'
p4092
I7366
sS'approved'
p4093
I437
sS'85.1'
p4094
I7367
sS'salary'
p4095
I2403
sS'direct-investment'
p4096
I7368
sS'chronicle'
p4097
I7369
sS'mobile'
p4098
I7370
sS'arising'
p4099
I7371
sS'clear'
p4100
I887
sS'broadened'
p4101
I7372
sS'unreasonable'
p4102
I4230
sS'drawing'
p4103
I3889
sS'bottom-line'
p4104
I7373
sS'7.78'
p4105
I7374
sS'clean'
p4106
I7375
sS'latest'
p4107
I527
sS'physics'
p4108
I4193
sS'bowes'
p4109
I5897
sS'stunned'
p4110
I7378
sS'666'
p4111
I7379
sS'ringers'
p4112
I487
sS'sheepskin'
p4113
I7380
sS'corporate-wide'
p4114
I7382
sS'completion'
p4115
I4194
sS'northern'
p4116
I1694
sS'justice'
p4117
I755
sS'assertion'
p4118
I7383
sS'flights'
p4119
I7384
sS'1917'
p4120
I7385
sS'pretty'
p4121
I1309
sS'circle'
p4122
I4195
sS'edelman'
p4123
I3018
sS'test-prep'
p4124
I7386
sS'reap'
p4125
I6092
sS'dominant'
p4126
I7387
sS'meanwhile'
p4127
I888
sS'retorts'
p4128
I7388
sS'shugart'
p4129
I7389
sS'potables'
p4130
I7390
sS'trees'
p4131
I7391
sS'feels'
p4132
I7392
sS'westborough'
p4133
I7393
sS'competing'
p4134
I7394
sS'woodcliff'
p4135
I7395
sS'during'
p4136
I224
sS'spackle'
p4137
I7396
sS'1.82'
p4138
I7397
sS'40-megabyte'
p4139
I7398
sS'alexander'
p4140
I7399
sS'retaliation'
p4141
I7400
sS'underlying'
p4142
I1104
sS'withdrawal'
p4143
I3052
sS'switzerland'
p4144
I3020
sS'x'
I7401
sS'forster'
p4145
I3021
sS'2645.90'
p4146
I3022
sS'unpublished'
p4147
I4197
sS'horoscopes'
p4148
I7402
sS'bethlehem'
p4149
I7403
sS'plummeted'
p4150
I7404
sS'protecting'
p4151
I2570
sS'close'
p4152
I406
sS'souper'
p4153
I3891
sS'pictures'
p4154
I3023
sS'won'
p4155
I1175
sS'probably'
p4156
I889
sS'conditions'
p4157
I890
sS'uncanny'
p4158
I7405
sS'hanifen'
p4159
I7406
sS'ranked'
p4160
I7407
sS'352.7'
p4161
I7408
sS'understanding'
p4162
I3024
sS'both'
p4163
I225
sS'garrison'
p4164
I7409
sS'second-largest'
p4165
I2408
sS'sensitive'
p4166
I7410
sS'forgotten'
p4167
I7411
sS'procedural'
p4168
I7346
sS'expendable'
p4169
I7412
sS'headed'
p4170
I7413
sS'battery'
p4171
I3025
sS'contras'
p4172
I4198
sS'described'
p4173
I1695
sS'wozniak'
p4174
I7414
sS'dams'
p4175
I7415
sS'describes'
p4176
I4199
sS'damn'
p4177
I4200
sS'maintenance'
p4178
I4332
sS'collected'
p4179
I3026
sS'fiber-optic'
p4180
I7418
sS'territory'
p4181
I7419
sS'empty'
p4182
I7420
sS'dialogue'
p4183
I4337
sS'partly'
p4184
I891
sS'heiwado'
p4185
I7423
sS'exempt'
p4186
I7424
sS'else'
p4187
I3027
sS'anthony'
p4188
I2409
sS'lives'
p4189
I1696
sS'disruptive'
p4190
I7425
sS'bidding'
p4191
I1999
sS'dialing'
p4192
I7426
sS'intriguing'
p4193
I7427
sS'loom'
p4194
I7428
sS'look'
p4195
I756
sS'governor'
p4196
I3028
sS'rope'
p4197
I7429
sS'pace'
p4198
I1697
sS'while'
p4199
I145
sS'3.35'
p4200
I4201
sS'match'
p4201
I3029
sS'fleet'
p4202
I7430
sS'mitchell'
p4203
I7431
sS'guide'
p4204
I7432
sS'pack'
p4205
I7953
sS'costly'
p4206
I3030
sS'contel'
p4207
I3098
sS'voters'
p4208
I1698
sS'rulers'
p4209
I7436
sS'darrell'
p4210
I7437
sS'full-length'
p4211
I7438
sS'ready'
p4212
I4202
sS'fannie'
p4213
I2410
sS'concentration'
p4214
I7440
sS'increased'
p4215
I516
sS'albany'
p4216
I7441
sS'shaw'
p4217
I7442
sS'grant'
p4218
I2411
sS'belong'
p4219
I4203
sS'discredit'
p4220
I7443
sS'madly'
p4221
I7444
sS'grand'
p4222
I4204
sS'modification'
p4223
I7445
sS'conflict'
p4224
I7446
sS'indianapolis'
p4225
I2625
sS'lawyers'
p4226
I709
sS'70.2'
p4227
I7447
sS'bonus'
p4228
I2412
sS'youngsters'
p4229
I4205
sS'uses'
p4230
I1310
sS'brussels'
p4231
I7448
sS'1937-40'
p4232
I7449
sS'15.5'
p4233
I7450
sS'older'
p4234
I2000
sS'poland'
p4235
I1311
sS'increases'
p4236
I757
sS'obviously'
p4237
I4206
sS'clears'
p4238
I7452
sS'ambassador'
p4239
I7453
sS'alvin'
p4240
I4388
sS'judgments'
p4241
I7455
sS'settlements'
p4242
I7456
sS'767'
p4243
I3031
sS'quarters'
p4244
I2413
sS'cocky'
p4245
I7457
sS'mcfall'
p4246
I4207
sS'taiwan'
p4247
I1699
sS'scowcroft'
p4248
I7458
sS'cast-iron'
p4249
I7459
sS'retirement'
p4250
I1487
sS'$'
I20
sS'over-the-counter'
p4251
I2414
sS'yttrium-containing'
p4252
I7460
sS'guaranteed'
p4253
I4208
sS'stock-market'
p4254
I1488
sS'ballots'
p4255
I7461
sS'guarantees'
p4256
I2001
sS'remaining'
p4257
I1176
sS'...'
p4258
I758
sS'march'
p4259
I548
sS'showing'
p4260
I1700
sS'game'
p4261
I1312
sS'wings'
p4262
I4209
sS'outright'
p4263
I4210
sS'overriding'
p4264
I7462
sS'signal'
p4265
I1701
sS'duluth'
p4266
I7463
sS'popular'
p4267
I1489
sS'sketch'
p4268
I7464
sS'113.2'
p4269
I7465
sS'brakes'
p4270
I7466
sS'well-connected'
p4271
I7467
sS'creation'
p4272
I4212
sS'some'
p4273
I73
sS'pierre'
p4274
I7468
sS'trends'
p4275
I4213
sS'economic'
p4276
I240
sS'cheetham'
p4277
I7469
sS'fanfare'
p4278
I7470
sS'93.3'
p4279
I7471
sS'delivered'
p4280
I2002
sS'distributable'
p4281
I4214
sS'*-101'
p4282
I7472
sS'exceeding'
p4283
I4215
sS'providence'
p4284
I4216
sS'civilization'
p4285
I3033
sS'fishman'
p4286
I7473
sS'slash'
p4287
I7474
sS'phasing'
p4288
I4217
sS'hotels'
p4289
I7475
sS'minimal'
p4290
I7476
sS'everybody'
p4291
I4218
sS'claimed'
p4292
I4219
sS'run'
p4293
I621
sS'first-time'
p4294
I7477
sS'processing'
p4295
I7478
sS'lakes'
p4296
I7479
sS'stem'
p4297
I3034
sS'step'
p4298
I2003
sS'schoolboys'
p4299
I7561
sS'negatives'
p4300
I7480
sS'at&t'
p4301
I2004
sS'gmac'
p4302
I2415
sS'abroad'
p4303
I4220
sS'troops'
p4304
I4221
sS'mega-stadium'
p4305
I7365
sS'76'
p4306
I7481
sS'mid-1990s'
p4307
I7482
sS'lieberman'
p4308
I4223
sS'congressman'
p4309
I4480
sS'classics'
p4310
I4224
sS'block'
p4311
I1177
sS'seeing'
p4312
I3158
sS'caretaker'
p4313
I7485
sS'within'
p4314
I892
sS'encircling'
p4315
I7486
sS'gilt'
p4316
I7487
sS'carlton'
p4317
I7488
sS'14.13'
p4318
I7489
sS'purina'
p4319
I7490
sS'pentagon'
p4320
I7491
sS'behaving'
p4321
I7492
sS'statistics'
p4322
I4226
sS'computer'
p4323
I300
sS'renewal'
p4324
I7493
sS'small-company'
p4325
I7494
sS'placing'
p4326
I4227
sS'accountability'
p4327
I7495
sS'achievement'
p4328
I2168
sS'heritage'
p4329
I1702
sS'manufacture'
p4330
I4228
sS'uncomplaining'
p4331
I7496
sS'3648.82'
p4332
I7497
sS'himself'
p4333
I1491
sS'duly'
p4334
I4229
sS'collapsed'
p4335
I4617
sS'specialty'
p4336
I2005
sS'larry'
p4337
I3035
sS'reed'
p4338
I3036
sS'authority'
p4339
I1105
sS'newer'
p4340
I7499
sS'russian'
p4341
I7500
sS'dissolves'
p4342
I6184
sS'vacancies'
p4343
I7502
sS'cautiously'
p4344
I7503
sS'similar'
p4345
I1313
sS'ordered'
p4346
I812
sS'adults'
p4347
I7504
sS'mindful'
p4348
I7505
sS'interventions'
p4349
I7506
sS'flush'
p4350
I7507
sS'34.625'
p4351
I7508
sS'metals'
p4352
I1704
sS'rockefeller'
p4353
I2404
sS'21-month'
p4354
I7509
sS'kidney'
p4355
I7510
sS'cotton'
p4356
I7511
sS'amounts'
p4357
I3038
sS'dashed'
p4358
I7512
sS'prerogative'
p4359
I7513
sS'fears'
p4360
I2416
sS'yeargin'
p4361
I301
sS'application'
p4362
I2417
sS'politicians'
p4363
I1705
sS'*-142'
p4364
I7514
sS'electrical'
p4365
I3039
sS'hoopla'
p4366
I7515
sS'*-147'
p4367
I7516
sS'*-146'
p4368
I7517
sS'department'
p4369
I136
sS'macmillan\\/mcgraw-hill'
p4370
I3040
sS'manhattan'
p4371
I2418
sS'dashes'
p4372
I7518
sS'battery-operated'
p4373
I7519
sS'smiles'
p4374
I7520
sS'draw'
p4375
I4231
sS'venerable'
p4376
I4232
sS'princely'
p4377
I7521
sS're-election'
p4378
I7522
sS'kansas'
p4379
I3041
sS'visits'
p4380
I7523
sS'frances'
p4381
I7524
sS'regulations'
p4382
I4552
sS'415.8'
p4383
I7525
sS'415.6'
p4384
I7526
sS'structure'
p4385
I4233
sS'hanover'
p4386
I7527
sS'urged'
p4387
I2006
sS'undertone'
p4388
I5563
sS'tubes'
p4389
I7529
sS'required'
p4390
I1069
sS'bribe'
p4391
I4559
sS'requires'
p4392
I1706
sS'sounded'
p4393
I4561
sS'evenly'
p4394
I4236
sS'co-author'
p4395
I4563
sS'fixed-rate'
p4396
I1707
sS'oct.'
p4397
I462
sS'farms'
p4398
I7532
sS'proposition'
p4399
I4237
sS'go'
p4400
I549
sS'gm'
p4401
I4238
sS'mercer'
p4402
I7534
sS'barnett'
p4403
I7535
sS'nose'
p4404
I7536
sS'nippon'
p4405
I4239
sS'marchand'
p4406
I4240
sS'169.9'
p4407
I7537
sS'cluttered'
p4408
I7538
sS'friendly'
p4409
I2419
sS'portfolios'
p4410
I2420
sS'miners'
p4411
I7539
sS'wave'
p4412
I7540
sS'rebuked'
p4413
I7541
sS'wash.'
p4414
I7542
sS'underscore'
p4415
I7543
sS'telling'
p4416
I3042
sS'g.'
p4417
I1708
sS'minera'
p4418
I7544
sS'exits'
p4419
I7545
sS'stiff'
p4420
I4241
sS'positions'
p4421
I2007
sS'michael'
p4422
I661
sS'2.29'
p4423
I7546
sS'inspection'
p4424
I7547
sS'enforce'
p4425
I4242
sS'guber'
p4426
I7548
sS'2.25'
p4427
I7549
sS'carter'
p4428
I7550
sS'picket'
p4429
I4243
sS'riyadh'
p4430
I7439
sS'punishing'
p4431
I7552
sS'boots'
p4432
I7553
sS'jump'
p4433
I4245
sS's.p'
p4434
I7555
sS'intraocular'
p4435
I7556
sS'notwithstanding'
p4436
I7557
sS'honors'
p4437
I7558
sS'auspices'
p4438
I7559
sS'plays'
p4439
I7560
sS'marketed'
p4440
I2421
sS'cell'
p4441
I3043
sS'volatile'
p4442
I2422
sS'collins'
p4443
I4246
sS';'
I63
sS'nicholas'
p4444
I7562
sS'marketer'
p4445
I4247
sS'brunei'
p4446
I7563
sS'z.'
p4447
I7564
sS'filings'
p4448
I1709
sS'stance'
p4449
I4248
sS'upsetting'
p4450
I7565
sS'225,000'
p4451
I7566
sS'kendrick'
p4452
I6519
sS'commercial'
p4453
I438
sS'following'
p4454
I662
sS'focused'
p4455
I2423
sS'convert'
p4456
I7568
sS'arrive'
p4457
I7569
sS'copyright'
p4458
I3044
sS'prater'
p4459
I7796
sS'tokyu'
p4460
I6998
sS'products'
p4461
I331
sS'644'
p4462
I4249
sS'patents'
p4463
I2424
sS'addresses'
p4464
I7572
sS'clark'
p4465
I7573
sS'win'
p4466
I1070
sS'clara'
p4467
I7575
sS'austria'
p4468
I7576
sS'surpluses'
p4469
I7577
sS'buildup'
p4470
I7578
sS'cloud'
p4471
I7579
sS'starters'
p4472
I7580
sS'remains'
p4473
I813
sS'hudson'
p4474
I3045
sS'cray'
p4475
I289
sS'camera'
p4476
I7581
sS'vehicle'
p4477
I2008
sS'jonathan'
p4478
I4250
sS'historically'
p4479
I3046
sS'reflects'
p4480
I3047
sS'surveyed'
p4481
I7582
sS'bureaucracy'
p4482
I4251
sS'formally'
p4483
I4252
sS'started'
p4484
I1777
sS'becomes'
p4485
I1710
sS'benchmark'
p4486
I1315
sS'lezovich'
p4487
I7585
sS'24.95'
p4488
I7586
sS'six-inch'
p4489
I4253
sS'mitsubishi'
p4490
I710
sS'building-products'
p4491
I7587
sS'rear-seat'
p4492
I3254
sS'arched'
p4493
I7589
sS'sanctions'
p4494
I1711
sS'averaged'
p4495
I7590
sS'recession'
p4496
I1071
sS'meet'
p4497
I974
sS'drops'
p4498
I7592
sS'n.y.'
p4499
I1712
sS'control'
p4500
I663
sS'beijing'
p4501
I1493
sS'unanticipated'
p4502
I5565
sS'links'
p4503
I4673
sS'money-losing'
p4504
I7594
sS'escaped'
p4505
I7595
sS'pulling'
p4506
I7596
sS'offense'
p4507
I7597
sS'sought'
p4508
I1072
sS'publicity'
p4509
I7040
sS'stemmed'
p4510
I7600
sS'chevrolet'
p4511
I3048
sS'sandra'
p4512
I7601
sS'tatsunori'
p4513
I7602
sS'chadha'
p4514
I7603
sS'arrangement'
p4515
I3049
sS'located'
p4516
I7604
sS'ferdinand'
p4517
I7606
sS'fare'
p4518
I4255
sS'farm'
p4519
I1316
sS'ronald'
p4520
I4256
sS'advocated'
p4521
I7609
sS'summer\\/winter'
p4522
I7610
sS'stirlen'
p4523
I7611
sS'scoop'
p4524
I7612
sS'claire'
p4525
I7613
sS'advocates'
p4526
I3050
sS'agenda'
p4527
I4257
sS'hid'
p4528
I7614
sS'executives'
p4529
I612
sS'astronomical'
p4530
I7616
sS'advertorial'
p4531
I7617
sS'combinations'
p4532
I7618
sS'alliance'
p4533
I7619
sS'including'
p4534
I257
sS'cruise'
p4535
I4258
sS'mentioned'
p4536
I7620
sS'converting'
p4537
I7621
sS'newsweek'
p4538
I1178
sS'exclusion'
p4539
I7622
sS'guerrilla'
p4540
I7623
sS'backers'
p4541
I4259
sS'housewife'
p4542
I7624
sS'banquet'
p4543
I7625
sS'forest-product'
p4544
I7626
sS'popularly'
p4545
I7627
sS'wells'
p4546
I7628
sS'auto'
p4547
I975
sS'billions'
p4548
I3290
sS'hands'
p4549
I2009
sS'front'
p4550
I1713
sS'documented'
p4551
I7630
sS'gunmen'
p4552
I7631
sS'literacy'
p4553
I7632
sS'discontinue'
p4554
I7633
sS'masters'
p4555
I7634
sS'university'
p4556
I415
sS'slide'
p4557
I2425
sS'magnitude'
p4558
I2426
sS'mode'
p4559
I7636
sS'advisory'
p4560
I7637
sS'crossing'
p4561
I4751
sS'leash'
p4562
I7639
sS'candela'
p4563
I2010
sS'namibian'
p4564
I7640
sS'commonwealth'
p4565
I759
sS'unwind'
p4566
I7641
sS'dallara'
p4567
I2427
sS'globe'
p4568
I4754
sS'700'
p4569
I7642
sS'inverted'
p4570
I7644
sS'aggravated'
p4571
I7645
sS'designer'
p4572
I2488
sS'measure'
p4573
I976
sS'margins'
p4574
I2011
sS'special'
p4575
I815
sS'offsetting'
p4576
I3051
sS'entertainment'
p4577
I2428
sS'critics'
p4578
I1073
sS'shambles'
p4579
I7646
sS'libor'
p4580
I7647
sS'clearing'
p4581
I7048
sS'wick'
p4582
I7648
sS'calif'
p4583
I2920
sS'wines'
p4584
I816
sS'recommendations'
p4585
I3019
sS'delegates'
p4586
I7649
sS'ill.'
p4587
I1494
sS'completely'
p4588
I4263
sS'ancestry'
p4589
I7650
sS'yorkers'
p4590
I7651
sS'20,000'
p4591
I2429
sS'timex'
p4592
I4264
sS'hostile'
p4593
I7653
sS'fueled'
p4594
I2430
sS'determining'
p4595
I7654
sS'itoh'
p4596
I4265
sS'1981'
p4597
I4266
sS'florida'
p4598
I4781
sS'mac'
p4599
I7655
sS'times'
p4600
I518
sS'counterpart'
p4601
I7656
sS'creditworthiness'
p4602
I7657
sS'acres'
p4603
I4268
sS'resumes'
p4604
I7658
sS'austin'
p4605
I7659
sS'justifying'
p4606
I7660
sS'prospective'
p4607
I4269
sS'evans'
p4608
I4270
sS'succeeds'
p4609
I4271
sS'powerful'
p4610
I4272
sS'disembodied'
p4611
I7661
sS'improving'
p4612
I3053
sS'precisely'
p4613
I2431
sS'quality'
p4614
I2432
sS'management'
p4615
I302
sS'stringently'
p4616
I7664
sS'practitioners'
p4617
I7665
sS'privacy'
p4618
I4273
sS'bears'
p4619
I7666
sS'cash-and-stock'
p4620
I7668
sS'achieved'
p4621
I7669
sS'1.5755'
p4622
I7670
sS'adopted'
p4623
I2012
sS'attack'
p4624
I2433
sS'three-digit'
p4625
I7671
sS'declines'
p4626
I1714
sS'ankle'
p4627
I7672
sS'perfectly'
p4628
I4274
sS'banque'
p4629
I7673
sS'final'
p4630
I1495
sS'2-3'
p4631
I7674
sS'sternberg'
p4632
I4275
sS'punish'
p4633
I7675
sS'2-8'
p4634
I7676
sS'exactly'
p4635
I7677
sS'reallocate'
p4636
I7679
sS'chemicals'
p4637
I1715
sS'arraignments'
p4638
I7680
sS'jersey-based'
p4639
I7681
sS'morbidity'
p4640
I7682
sS'photograph'
p4641
I4276
sS'ultimatum'
p4642
I7683
sS'cartoonist'
p4643
I4277
sS'beg'
p4644
I7684
sS'touted'
p4645
I7685
sS'defense'
p4646
I760
sS'providing'
p4647
I2119
sS'bew'
p4648
I7687
sS'drunk'
p4649
I6037
sS'unchanged'
p4650
I978
sS'p.m'
p4651
I4278
sS'takashima'
p4652
I7688
sS'need'
p4653
I664
sS'microphone'
p4654
I4279
sS'pursued'
p4655
I4280
sS'able'
p4656
I711
sS'empowered'
p4657
I7454
sS'purchasing'
p4658
I780
sS'arm'
p4659
I3054
sS'instance'
p4660
I1496
sS'issuing'
p4661
I7690
sS'2.5'
p4662
I2661
sS'sufficiency'
p4663
I7691
sS'truck'
p4664
I3055
sS'ind.'
p4665
I7692
sS'balloting'
p4666
I4281
sS'refocusing'
p4667
I7694
sS'fuels'
p4668
I7695
sS'on-campus'
p4669
I7696
sS'disgorge'
p4670
I1716
sS'discos'
p4671
I4865
sS'connected'
p4672
I4282
sS'demise'
p4673
I3056
sS'expired'
p4674
I7698
sS'stereo'
p4675
I7699
sS'wilcox'
p4676
I7700
sS'consequences'
p4677
I4284
sS'wakui'
p4678
I4285
sS'upset'
p4679
I4286
sS'scrambled'
p4680
I4287
sS'daiwa'
p4681
I4288
sS'businessman'
p4682
I4289
sS'bordeaux'
p4683
I3345
sS'impression'
p4684
I7702
sS'emerging'
p4685
I7703
sS'violation'
p4686
I4290
sS'anyway'
p4687
I7705
sS'wohlstetter'
p4688
I7706
sS'argues'
p4689
I7707
sS'high-level'
p4690
I7708
sS'partners'
p4691
I893
sS'based'
p4692
I353
sS'tire'
p4693
I2434
sS'earned'
p4694
I1317
sS'374.20'
p4695
I6484
sS'winner'
p4696
I7709
sS'rash'
p4697
I7710
sS'employer'
p4698
I2614
sS'bases'
p4699
I3057
sS'inherited'
p4700
I7713
sS'fuel'
p4701
I2533
sS'*-166'
p4702
I7715
sS'*-165'
p4703
I7716
sS'*-163'
p4704
I4294
sS'*-162'
p4705
I7717
sS'achieve'
p4706
I4295
sS'dodge'
p4707
I3058
sS'michigan'
p4708
I3059
sS'overall'
p4709
I1718
sS'clean-air'
p4710
I2435
sS'120'
p4711
I1719
sS'joint'
p4712
I1074
sS'125'
p4713
I3060
sS'joins'
p4714
I4907
sS'consecutive'
p4715
I2662
sS'buyer'
p4716
I1806
sS'sassy'
p4717
I7721
sS'kong'
p4718
I1604
sS'procedures'
p4719
I3062
sS'endless'
p4720
I7722
sS'gray'
p4721
I3063
sS'processes'
p4722
I4296
sS'*t*-189'
p4723
I7723
sS'katzenstein'
p4724
I2623
sS'trucks'
p4725
I712
sS'*t*-185'
p4726
I7725
sS'*t*-184'
p4727
I7726
sS'*t*-186'
p4728
I7727
sS'*t*-181'
p4729
I7728
sS'*t*-180'
p4730
I7729
sS'*t*-182'
p4731
I7730
sS'she'
p4732
I100
sS'contain'
p4733
I2014
sS'proponents'
p4734
I3064
sS'bucking'
p4735
I5584
sS'solicitous'
p4736
I7731
sS'widow'
p4737
I7732
sS'spotted'
p4738
I7733
sS'multiplying'
p4739
I7734
sS'shake'
p4740
I7735
sS'canine'
p4741
I7736
sS'operates'
p4742
I1720
sS'argued'
p4743
I3065
sS'pension-fund'
p4744
I7737
sS'accused'
p4745
I2443
sS'powder'
p4746
I7738
sS'operated'
p4747
I4298
sS'imbalances'
p4748
I7739
sS'baris'
p4749
I7740
sS'harvested'
p4750
I7741
sS'nightmare'
p4751
I7742
sS'tend'
p4752
I4299
sS'written'
p4753
I2016
sS'convince'
p4754
I7743
sS'tyre'
p4755
I2017
sS'tens'
p4756
I7744
sS'neither'
p4757
I979
sS'prevailing'
p4758
I7745
sS'sabotage'
p4759
I7746
sS'seattle-based'
p4760
I7747
sS'comparable'
p4761
I3066
sS'sole'
p4762
I7748
sS'importance'
p4763
I7749
sS'efficiency'
p4764
I7750
sS'key'
p4765
I817
sS'police'
p4766
I2436
sS'precious'
p4767
I2018
sS'problem'
p4768
I339
sS'knopf'
p4769
I4300
sS'hits'
p4770
I7751
sS'spitler'
p4771
I7752
sS'limits'
p4772
I2438
sS'leveraged'
p4773
I1492
sS'career'
p4774
I2019
sS'1\\/2'
p4775
I439
sS'strains'
p4776
I4301
sS'1\\/4'
p4777
I1379
sS'publicized'
p4778
I4302
sS'red-flag'
p4779
I7754
sS'1\\/8'
p4780
I1075
sS'lofty'
p4781
I5805
sS'propagandize'
p4782
I7756
sS'jersey'
p4783
I2439
sS'torn'
p4784
I5591
sS'diplomats'
p4785
I7757
sS'morrell'
p4786
I7758
sS'tuesday'
p4787
I219
sS'passers-by'
p4788
I7759
sS'penchant'
p4789
I7760
sS'maximize'
p4790
I4303
sS'industrials'
p4791
I3068
sS'tort'
p4792
I5593
sS'addition'
p4793
I585
sS'discrimination'
p4794
I7762
sS'29year'
p4795
I7763
sS'andean'
p4796
I7764
sS'cent'
p4797
I2020
sS'immense'
p4798
I7765
sS'liberals'
p4799
I7766
sS'slowly'
p4800
I3069
sS'treat'
p4801
I4304
sS'copperweld'
p4802
I3070
sS'senses'
p4803
I7767
sS'controlled'
p4804
I7768
sS'abuzz'
p4805
I7769
sS'huntsville'
p4806
I7770
sS'face'
p4807
I488
sS'otc'
p4808
I3071
sS'guerrillas'
p4809
I7771
sS'slowing'
p4810
I980
sS'abortions'
p4811
I7772
sS'smoking'
p4812
I3072
sS'chivas'
p4813
I7773
sS'novel'
p4814
I2440
sS'intimidate'
p4815
I7774
sS'*-98'
p4816
I4305
sS'harder'
p4817
I2021
sS'ripen'
p4818
I7775
sS'372.9'
p4819
I7776
sS'queuing'
p4820
I7777
sS'chalk'
p4821
I7778
sS'eagleton'
p4822
I7779
sS'deviant'
p4823
I7780
sS'inaccurately'
p4824
I7781
sS'owns'
p4825
I622
sS'examiner'
p4826
I3073
sS'5.57'
p4827
I7782
sS'examined'
p4828
I4306
sS'4.55'
p4829
I7784
sS'disclosures'
p4830
I7785
sS'anglian'
p4831
I7786
sS'capture'
p4832
I3074
sS'22.75'
p4833
I7787
sS'generic'
p4834
I7788
sS'identities'
p4835
I7789
sS'began'
p4836
I341
sS'parts'
p4837
I1722
sS'eclectic'
p4838
I7790
sS'party'
p4839
I1723
sS'walters'
p4840
I7791
sS'satrum'
p4841
I7792
sS'effect'
p4842
I586
sS'market-share'
p4843
I3075
sS'sagged'
p4844
I7793
sS'anku'
p4845
I7794
sS'fierce'
p4846
I4309
sS'frequently'
p4847
I2022
sS'paycheck'
p4848
I7795
sS'transaction'
p4849
I550
sS'reflection'
p4850
I3414
sS'i'
I91
sS'292.32'
p4851
I7797
sS'variety'
p4852
I3076
sS'well'
p4853
I213
sS'mccabe'
p4854
I7798
sS'64.5'
p4855
I7799
sS'47'
p4856
I2023
sS'risk-free'
p4857
I7800
sS'restore'
p4858
I3077
sS'increasingly'
p4859
I2441
sS'1,100'
p4860
I5046
sS'accurate'
p4861
I4310
sS'detail'
p4862
I7802
sS'sources'
p4863
I1318
sS'mistakes'
p4864
I7804
sS'distant'
p4865
I7805
sS'advertised'
p4866
I5051
sS'skill'
p4867
I7807
sS'high-grade'
p4868
I7808
sS'run-down'
p4869
I4311
sS'stock-picking'
p4870
I7809
sS'large-scale'
p4871
I7810
sS'deposits'
p4872
I5060
sS'imposes'
p4873
I7812
sS'maintaining'
p4874
I2250
sS'warrant'
p4875
I4312
sS'homework'
p4876
I7813
sS'railcar'
p4877
I7814
sS'fate'
p4878
I5066
sS'devised'
p4879
I7815
sS'utah'
p4880
I7816
sS'crushed'
p4881
I7817
sS'historic'
p4882
I3079
sS'266'
p4883
I7818
sS'burden'
p4884
I7819
sS'immediately'
p4885
I3428
sS'labor-management'
p4886
I2931
sS'prominent'
p4887
I7822
sS'loss'
p4888
I354
sS'test-practice'
p4889
I7823
sS'necessary'
p4890
I1179
sS'marie-louise'
p4891
I3080
sS'alternatively'
p4892
I7824
sS'stevenson'
p4893
I4315
sS'fernando'
p4894
I4316
sS'francisco-based'
p4895
I7825
sS'300-a-share'
p4896
I4317
sS'payments'
p4897
I551
sS'lose'
p4898
I4318
sS'divest'
p4899
I7826
sS'page'
p4900
I2024
sS'backlog'
p4901
I4319
sS'shed'
p4902
I7827
sS'arbitrage'
p4903
I441
sS'arrows'
p4904
I7828
sS'a-d'
p4905
I7829
sS'library'
p4906
I7830
sS'colonsville'
p4907
I7831
sS'motive'
p4908
I4320
sS'cleveland'
p4909
I1724
sS'home'
p4910
I665
sS'peter'
p4911
I1076
sS'leery'
p4912
I7832
sS'weisfield'
p4913
I2109
sS'competitor'
p4914
I3081
sS'near-record'
p4915
I7833
sS'broad'
p4916
I3082
sS'delaware'
p4917
I7834
sS'favors'
p4918
I7835
sS'rewarding'
p4919
I7836
sS'fountain'
p4920
I7837
sS'moderated'
p4921
I7838
sS'sweepstakes'
p4922
I7839
sS'fretted'
p4923
I7840
sS'?'
I290
sS'coated'
p4924
I7841
sS'inaccurate'
p4925
I4321
sS'reaching'
p4926
I5094
sS'journal'
p4927
I1077
sS'monetary'
p4928
I7842
sS'expansion'
p4929
I2442
sS'beach'
p4930
I4491
sS'poignant'
p4931
I7844
sS'tenfold'
p4932
I7845
sS'prohibited'
p4933
I7846
sS'offset'
p4934
I1078
sS'30,537'
p4935
I7847
sS'refuge'
p4936
I7848
sS'cataracts'
p4937
I7849
sS'freedom'
p4938
I4322
sS'sinister'
p4939
I7850
sS'compatible'
p4940
I7852
sS'23.5'
p4941
I4323
sS'23.4'
p4942
I7853
sS'dominion'
p4943
I7854
sS'early-retirement'
p4944
I7855
sS'desktop'
p4945
I6040
sS'stakes'
p4946
I4324
sS'equally'
p4947
I3083
sS'pistols'
p4948
I7856
sS'glenn'
p4949
I4325
sS'previously'
p4950
I818
sS'washington'
p4951
I519
sS'cocoa'
p4952
I7857
sS'h.'
p4953
I3084
sS'additions'
p4954
I7858
sS'managing'
p4955
I1498
sS'5.29'
p4956
I7859
sS'utility'
p4957
I2025
sS'mississippi'
p4958
I1725
sS'additional'
p4959
I382
sS'pc'
p4960
I3424
sS'museum'
p4961
I4327
sS'daniels'
p4962
I7860
sS'relegated'
p4963
I4328
sS'noticed'
p4964
I7861
sS'accountant'
p4965
I7862
sS'inner'
p4966
I7863
sS'vichy'
p4967
I4329
sS'dolphins'
p4968
I7864
sS'recruited'
p4969
I7865
sS'revised'
p4970
I5612
sS'north'
p4971
I4331
sS'napa'
p4972
I7417
sS'hazardous'
p4973
I4333
sS'agrees'
p4974
I3085
sS'xerox'
p4975
I2444
sS'escrow'
p4976
I4334
sS'administrators'
p4977
I7866
sS'gain'
p4978
I552
sS'courts'
p4979
I1499
sS'highest'
p4980
I1727
sS'eat'
p4981
I7867
sS'he'
p4982
I46
sS'ac-130u'
p4983
I7868
sS'cells'
p4984
I7869
sS'signed'
p4985
I3086
sS'converted'
p4986
I7870
sS'stories'
p4987
I2692
sS'721'
p4988
I7871
sS'fabricator'
p4989
I7872
sS'piece'
p4990
I7873
sS'display'
p4991
I7874
sS'signet'
p4992
I7875
sS'marketplace'
p4993
I2026
sS'befell'
p4994
I7876
sS'devise'
p4995
I4335
sS'reservations'
p4996
I4336
sS'penny'
p4997
I7877
sS'compromises'
p4998
I7421
sS'twist'
p4999
I7878
sS'4,393,237'
p5000
I7879
sS'crystals'
p5001
I2027
sS'education'
p5002
I981
sS'eric'
p5003
I7880
sS'functions'
p5004
I3087
sS'rumors'
p5005
I1319
sS'ingredients'
p5006
I7881
sS'tailoring'
p5007
I7882
sS'offensive'
p5008
I7883
sS'barth'
p5009
I7884
sS'westminster'
p5010
I7885
sS'fledgling'
p5011
I7886
sS'star'
p5012
I4338
sS'emerges'
p5013
I7888
sS'stay'
p5014
I2028
sS'stag'
p5015
I3088
sS'newspaper-printing'
p5016
I7889
sS'2141.7'
p5017
I7890
sS'deter'
p5018
I7891
sS'cabernet'
p5019
I2174
sS'curbed'
p5020
I7893
sS'spence'
p5021
I7894
sS'appoint'
p5022
I7895
sS'logjam'
p5023
I7896
sS'pools'
p5024
I7638
sS'persistent'
p5025
I2445
sS'ortega'
p5026
I4339
sS'portion'
p5027
I2446
sS'runkel'
p5028
I7898
sS'frankfurt'
p5029
I4340
sS'flightiness'
p5030
I7899
sS'leighton'
p5031
I7900
sS'similarity'
p5032
I7901
sS'four-year'
p5033
I7902
sS'protest'
p5034
I4341
sS'asian'
p5035
I1180
sS'aides'
p5036
I4342
sS'consists'
p5037
I5203
sS'undersecretary'
p5038
I4343
sS'14.54'
p5039
I7905
sS'whose'
p5040
I761
sS'gamut'
p5041
I7906
sS'calculate'
p5042
I4344
sS'segments'
p5043
I1728
sS'contained'
p5044
I1605
sS'protections'
p5045
I7907
sS'swap'
p5046
I1320
sS'teaching'
p5047
I3090
sS'sorry'
p5048
I7909
sS'rotie'
p5049
I7910
sS'cruising'
p5050
I7911
sS'mid-size'
p5051
I7913
sS'void'
p5052
I7914
sS'referrals'
p5053
I7915
sS'wilfred'
p5054
I7916
sS'reforms'
p5055
I2447
sS'school-district'
p5056
I7917
sS'vast'
p5057
I7918
sS'biaggi'
p5058
I7919
sS'baking'
p5059
I7920
sS'skills'
p5060
I2448
sS'laurels'
p5061
I7921
sS'companies'
p5062
I147
sS'solution'
p5063
I7922
sS'herbert'
p5064
I7923
sS'frozen'
p5065
I5064
sS'hard-charging'
p5066
I7924
sS'deplorable'
p5067
I7925
sS'heading'
p5068
I7926
sS'clothes'
p5069
I7927
sS'force'
p5070
I407
sS'warns'
p5071
I7929
sS'japanese'
p5072
I112
sS'across'
p5073
I772
sS'likely'
p5074
I553
sS'263.07'
p5075
I7554
sS'ratners'
p5076
I1181
sS'subordinate'
p5077
I7931
sS'implemented'
p5078
I7932
sS'chafic'
p5079
I7933
sS'even'
p5080
I123
sS'preferences'
p5081
I7934
sS'36-minute'
p5082
I7935
sS'integrity'
p5083
I7936
sS'panama'
p5084
I3091
sS'orchestra'
p5085
I7937
sS'nec'
p5086
I1500
sS'asia'
p5087
I819
sS'spokesman'
p5088
I276
sS'lights'
p5089
I2449
sS'socialism'
p5090
I7102
sS'dr.'
p5091
I982
sS'new'
p5092
I43
sS'net'
p5093
I166
sS'ever'
p5094
I1182
sS'deemed'
p5095
I4346
sS'barometer'
p5096
I7939
sS'seventh'
p5097
I7941
sS'never'
p5098
I537
sS'two-sevenths'
p5099
I7803
sS'drew'
p5100
I4347
sS'drooled'
p5101
I7943
sS'met'
p5102
I1729
sS'108'
p5103
I7944
sS'osha'
p5104
I1079
sS'active'
p5105
I1595
sS'103'
p5106
I7945
sS'100'
p5107
I241
sS'cardboard'
p5108
I4349
sS'106'
p5109
I7946
sS'107'
p5110
I4350
sS'romanee-conti'
p5111
I3092
sS'105'
p5112
I7947
sS'dry'
p5113
I3093
sS'tapes'
p5114
I7948
sS'taper'
p5115
I7949
sS'economics'
p5116
I2451
sS'ignoring'
p5117
I2748
sS'credit'
p5118
I463
sS'harass'
p5119
I7951
sS'chrysler'
p5120
I1730
sS'permit'
p5121
I3094
sS'complicated'
p5122
I1606
sS'boogieman'
p5123
I5427
sS'decries'
p5124
I7954
sS'plea'
p5125
I5623
sS'campaign'
p5126
I762
sS'reagan'
p5127
I1184
sS'county'
p5128
I2029
sS'specifics'
p5129
I7955
sS'cost-control'
p5130
I5450
sS'guests'
p5131
I2756
sS'counts'
p5132
I3097
sS'251.2'
p5133
I7435
sS'undesirable'
p5134
I7957
sS'army'
p5135
I2030
sS'arms'
p5136
I3099
sS'call'
p5137
I1419
sS'recommend'
p5138
I4352
sS'survive'
p5139
I5487
sS'leaky'
p5140
I7959
sS'type'
p5141
I1501
sS'tell'
p5142
I7960
sS'six-packs'
p5143
I4353
sS'supporters'
p5144
I4354
sS'lungs'
p5145
I7961
sS'wary'
p5146
I4355
sS'composite'
p5147
I666
sS'343'
p5148
I7962
sS'gilts'
p5149
I7963
sS'warn'
p5150
I7964
sS'regal'
p5151
I7965
sS'berlin'
p5152
I7966
sS'frenzy'
p5153
I2031
sS'adult'
p5154
I4356
sS'ward'
p5155
I763
sS'blindfold'
p5156
I7967
sS'carnival'
p5157
I1185
sS'rights'
p5158
I520
sS'2.65'
p5159
I7968
sS'gasoline'
p5160
I2452
sS'candlestick'
p5161
I3101
sS'movies'
p5162
I7969
sS'akio'
p5163
I4357
sS'akin'
p5164
I7970
sS'root'
p5165
I4358
sS'unmarked'
p5166
I7971
sS'give'
p5167
I587
sS'stressing'
p5168
I4359
sS'one-upsmanship'
p5169
I7972
sS'involve'
p5170
I4360
sS'10,000'
p5171
I623
sS'foods'
p5172
I3102
sS'write-downs'
p5173
I7973
sS'3,288,453'
p5174
I7974
sS'advancing'
p5175
I3103
sS'initiate'
p5176
I7975
sS'answer'
p5177
I3104
sS'cavernous'
p5178
I7976
sS'382-37'
p5179
I6521
sS'aggressive'
p5180
I2485
sS'gordon'
p5181
I3105
sS'minority'
p5182
I1186
sS'undergoing'
p5183
I7978
sS'replacing'
p5184
I7979
sS'loyalty'
p5185
I3106
sS'schoolchildren'
p5186
I5632
sS'president'
p5187
I70
sS'hammacher'
p5188
I7982
sS'security-type'
p5189
I7983
sS'one-newspaper'
p5190
I7984
sS'purchase'
p5191
I408
sS'4,645'
p5192
I7985
sS'attempt'
p5193
I1187
sS'third'
p5194
I764
sS'capitalism'
p5195
I7986
sS'maintain'
p5196
I4362
sS'anti-miscarriage'
p5197
I7987
sS'operate'
p5198
I1502
sS'operations'
p5199
I342
sS'headcount-control'
p5200
I7988
sS'larger-than-normal'
p5201
I4363
sS'murray'
p5202
I1731
sS'responsive'
p5203
I7989
sS'interpublic'
p5204
I3107
sS'partisans'
p5205
I4364
sS'before'
p5206
I194
sS'scoring'
p5207
I894
sS'<START>'
p5208
I0
sS'10.2'
p5209
I4365
sS'10.5'
p5210
I7990
sS'rescheduled'
p5211
I7991
sS'personal'
p5212
I820
sS','
I3
sS'crew'
p5213
I7992
sS'better'
p5214
I647
sS'differently'
p5215
I7994
sS'stalemate'
p5216
I7995
sS'weeks'
p5217
I521
sS'overcome'
p5218
I4366
sS'1,298'
p5219
I7996
sS'dec.'
p5220
I713
sS'petulant'
p5221
I7997
sS'combination'
p5222
I3108
sS'weakness'
p5223
I2454
sS'academics'
p5224
I7999
sS'rhetoric'
p5225
I4367
sS'bludgeon'
p5226
I6515
sS'newhouse'
p5227
I1503
sS'went'
p5228
I983
sS'side'
p5229
I1321
sS'bone'
p5230
I3109
sS'bond'
p5231
I355
sS'aide'
p5232
I3110
sS'taught'
p5233
I3111
sS'trading'
p5234
I68
sS'navy'
p5235
I4368
sS'aids'
p5236
I3112
sS'merchants'
p5237
I3113
sS'crucial'
p5238
I4369
sS'content'
p5239
I4370
sS'reader'
p5240
I3114
sS'surprise'
p5241
I2032
sS'sluggish'
p5242
I1504
sS'turning'
p5243
I1732
sS'profess'
p5244
I7416
sS'u.s.'
p5245
I53
sS'struggle'
p5246
I3702
sS'tuscany'
p5247
I4816
sS'1.8415'
p5248
I4372
sS'starts'
p5249
I3115
sS'features'
p5250
I2456
sS'economists'
p5251
I1505
sS'grade'
p5252
I4373
sS'hook'
p5253
I4374
sS'featured'
p5254
I4375
sS'<UNK>'
p5255
I2
sS'dumbfounded'
p5256
I5958
sS'exposures'
p5257
I4376
sS'georgia-pacific'
p5258
I984
sS'somewhat'
p5259
I4377
sS'gambler'
p5260
I6006
sS'begins'
p5261
I2283
sS'princeton'
p5262
I5132
sS'preparation'
p5263
I2457
sS'matter'
p5264
I1081
sS'persuade'
p5265
I4767
sS'hymowitz'
p5266
I2825
sS'enables'
p5267
I3747
sS'sees'
p5268
I4379
sS'steelmaker'
p5269
I4380
sS'modern'
p5270
I4381
sS'mind'
p5271
I6048
sS'mine'
p5272
I3752
sS'seen'
p5273
I1506
sS'seem'
p5274
I1082
sS'seek'
p5275
I714
sS'tells'
p5276
I2458
sS'light-truck'
p5277
I4383
sS'anti-drug'
p5278
I6093
sS'n.c'
p5279
I3445
sS'kean'
p5280
I4384
sS'regular'
p5281
I3116
sS'medical'
p5282
I1322
sS'competitors'
p5283
I4385
sS'points'
p5284
I356
sS'principle'
p5285
I3117
sS'biedermann'
p5286
I6537
sS'consumer'
p5287
I895
sS'dow'
p5288
I522
sS'dover'
p5289
I2459
sS'selected'
p5290
I6138
sS'jurisdiction'
p5291
I6183
sS'ending'
p5292
I1323
sS'attempts'
p5293
I2460
sS'walkout'
p5294
I6540
sS'stepping'
p5295
I4390
sS'judges'
p5296
I1507
sS'northeast'
p5297
I1324
sS'surged'
p5298
I1441
sS'explain'
p5299
I4391
sS'debts'
p5300
I1733
sS'sugar'
p5301
I442
sS'folks'
p5302
I4392
sS'exports'
p5303
I985
sS'tailors'
p5304
I6252
sS'stop'
p5305
I2033
sS'christopher'
p5306
I2303
sS'underprivileged'
p5307
I6854
sS'earn'
p5308
I4393
sS'bar'
p5309
I1639
sS'fields'
p5310
I986
sS'high-yield'
p5311
I2462
sS'bad'
p5312
I821
sS'architecture'
p5313
I3119
sS'framers'
p5314
I3120
sS'ban'
p5315
I987
sS'ethical'
p5316
I3121
sS'open-top'
p5317
I6308
sS'reference'
p5318
I4394
sS'testing'
p5319
I1083
sS'decided'
p5320
I896
sS'subject'
p5321
I897
sS'brazil'
p5322
I1325
sS'said'
p5323
I23
sS'inappropriate'
p5324
I4395
sS'physicist'
p5325
I4396
sS'sulfur-dioxide'
p5326
I4397
sS'harvard'
p5327
I3122
sS'386'
p5328
I4398
sS'worksheets'
p5329
I3123
sS'suggested'
p5330
I2034
sS'uncertainty'
p5331
I1734
sS'against'
p5332
I303
sS'nekoosa'
p5333
I1326
sS'presumably'
p5334
I4399
sS'appeared'
p5335
I2463
sS'springs'
p5336
I3125
sS'line-item'
p5337
I1188
sS'targeting'
p5338
I4400
sS'asks'
p5339
I2320
sS'basis'
p5340
I2035
sS'three'
p5341
I185
sS'commission'
p5342
I443
sS'trigger'
p5343
I4402
sS'interest'
p5344
I199
sS'basic'
p5345
I2036
sS'entered'
p5346
I2464
sS'stresses'
p5347
I6550
sS'quantities'
p5348
I4404
sS'rapanelli'
p5349
I2465
sS'caldor'
p5350
I4406
sS'exception'
p5351
I4407
sS'neal'
p5352
I4408
sS'economies'
p5353
I3127
sS'ventures'
p5354
I4409
sS'near'
p5355
I1189
sS'moratorium'
p5356
I3128
sS'balance'
p5357
I2466
sS'employees'
p5358
I541
sS'seven'
p5359
I1190
sS'cane'
p5360
I6567
sS'metropolitan'
p5361
I4410
sS'mexico'
p5362
I2037
sS'is'
p5363
I22
sS'it'
p5364
I24
sS'*-108'
p5365
I7312
sS'ii'
p5366
I523
sS'shame'
p5367
I3129
sS'in'
p5368
I9
sS'if'
p5369
I82
sS'grown'
p5370
I2467
sS'entitles'
p5371
I4411
sS'make'
p5372
I137
sS'quant'
p5373
I6614
sS'sidelines'
p5374
I4412
sS'grows'
p5375
I3130
sS'bells'
p5376
I624
sS'evolve'
p5377
I6628
sS'governors'
p5378
I4413
sS'sacramento'
p5379
I4414
sS'declaring'
p5380
I3131
sS'kit'
p5381
I6644
sS'polyproplene'
p5382
I6657
sS'guilders'
p5383
I1191
sS'opportunity'
p5384
I1192
sS'programs'
p5385
I444
sS'settled'
p5386
I2112
sS'failing'
p5387
I2468
sS'materials'
p5388
I371
sS'claims'
p5389
I1735
sS'800'
p5390
I3132
sS'investments'
p5391
I667
sS'left'
p5392
I1327
sS'just'
p5393
I205
sS'yen'
p5394
I180
sS'unfair'
p5395
I1193
sS'identify'
p5396
I4415
sS'human'
p5397
I1508
sS'yamamoto'
p5398
I2038
sS'yet'
p5399
I524
sS'impending'
p5400
I4416
sS'buyers'
p5401
I989
sS'candidate'
p5402
I4417
sS'regarded'
p5403
I3133
sS'character'
p5404
I3989
sS'jeweler'
p5405
I4418
sS'inefficiencies'
p5406
I4419
sS'justices'
p5407
I3134
sS'save'
p5408
I4420
sS'trimming'
p5409
I4421
sS'buy-out'
p5410
I715
sS'shoulder'
p5411
I4422
sS'performing'
p5412
I3135
sS'dean'
p5413
I4423
sS'deal'
p5414
I668
sS'upham'
p5415
I4504
sS'dead'
p5416
I4014
sS'57.50'
p5417
I4425
sS'fairless'
p5418
I3136
sS'short-term'
p5419
I990
sS'ore.'
p5420
I4426
sS"dunkin'"
p5421
I2469
sS'single-family'
p5422
I4427
sS'bold'
p5423
I4035
sS'subscriptions'
p5424
I4429
sS'predicting'
p5425
I2470
sS'carnegie-mellon'
p5426
I4048
sS'chilean'
p5427
I4431
sS'travel-related'
p5428
I7009
sS'icahn'
p5429
I4432
sS'magazine'
p5430
I490
sS'afternoon'
p5431
I2471
sS'commit'
p5432
I4433
sS'gloss'
p5433
I6570
sS'managers'
p5434
I249
sS'formerly'
p5435
I4434
sS'amounted'
p5436
I4062
sS'intellectual'
p5437
I4435
sS'down'
p5438
I170
sS'fumes'
p5439
I6971
sS'scherer'
p5440
I4436
sS'1990s'
p5441
I4308
sS'retin-a'
p5442
I4437
sS'initial'
p5443
I1328
sS'per-share'
p5444
I4438
sS'roof-crush'
p5445
I2472
sS'editor'
p5446
I1084
sS'satisfactorily'
p5447
I7258
sS'form'
p5448
I625
sS'landing'
p5449
I4440
sS'ford'
p5450
I765
sS'failure'
p5451
I7045
sS'diaper'
p5452
I1736
sS'228'
p5453
I4087
sS'analyst'
p5454
I383
sS'refunds'
p5455
I4443
sS'understood'
p5456
I4444
sS'harmony'
p5457
I3574
sS'attached'
p5458
I4092
sS'plaintiffs'
p5459
I2473
sS'stages'
p5460
I3137
sS'propaganda'
p5461
I2474
sS'classic'
p5462
I3138
sS'sidestep'
p5463
I4446
sS'one-third'
p5464
I2475
sS'covers'
p5465
I2476
sS'sale'
p5466
I364
sS'ship'
p5467
I1737
sS'-lcb-'
p5468
I899
sS'phelan'
p5469
I766
sS'generally'
p5470
I767
sS'exporter'
p5471
I2040
sS'felt'
p5472
I2477
sS'utilities'
p5473
I1194
sS'fell'
p5474
I320
sS'authorities'
p5475
I2041
sS'transfers'
p5476
I4448
sS'died'
p5477
I2478
sS'jones'
p5478
I514
sS'mass.'
p5479
I1609
sS'13.65'
p5480
I4449
sS'happening'
p5481
I7178
sS'apology'
p5482
I4450
sS'assume'
p5483
I3139
sS'daily'
p5484
I823
sS'premiums'
p5485
I3140
sS'profits'
p5486
I900
sS'managed'
p5487
I2042
sS'manager'
p5488
I491
sS'skin'
p5489
I3141
sS'bomber'
p5490
I7222
sS'milk'
p5491
I3142
sS'anticipation'
p5492
I4451
sS'disorders'
p5493
I2480
sS'technique'
p5494
I7239
sS'father'
p5495
I3143
sS'editors'
p5496
I2481
sS'0'
I12
sS'finally'
p5497
I2482
sS'praised'
p5498
I4452
sS'marks'
p5499
I1085
sS'vitulli'
p5500
I4453
sS'rockford'
p5501
I4454
sS'record-keeping'
p5502
I4455
sS'construction'
p5503
I327
sS'lynch'
p5504
I2043
sS'advised'
p5505
I4456
sS'did'
p5506
I151
sS'die'
p5507
I2483
sS'proposals'
p5508
I4458
sS'democrat'
p5509
I2390
sS'round'
p5510
I2044
sS'olympic'
p5511
I3144
sS'talked'
p5512
I7340
sS'telerate'
p5513
I1509
sS'intelogic'
p5514
I2484
sS'riese'
p5515
I3145
sS'stamford'
p5516
I4459
sS'targets'
p5517
I2401
sS'adds'
p5518
I901
sS'page-one'
p5519
I4460
sS'suspect'
p5520
I3146
sS'international'
p5521
I206
sS'transportation'
p5522
I902
sS'french'
p5523
I2407
sS'earthquake'
p5524
I3147
sS'superconductor'
p5525
I2486
sS'wait'
p5526
I3148
sS'box'
p5527
I3149
sS'canadian'
p5528
I4461
sS'institute'
p5529
I669
sS'shift'
p5530
I4462
sS'high-tech'
p5531
I3150
sS'bob'
p5532
I1738
sS'taipei'
p5533
I3151
sS'teenage'
p5534
I5184
sS'adjustable'
p5535
I4463
sS'useful'
p5536
I4464
sS'merely'
p5537
I2045
sS'ailing'
p5538
I4465
sS'transplant'
p5539
I4466
sS'sympathetic'
p5540
I4467
sS'wealth'
p5541
I4468
sS'photographic'
p5542
I5640
sS'visit'
p5543
I2046
sS'france'
p5544
I1195
sS'vineyard'
p5545
I3152
sS'francs'
p5546
I3037
sS'curriculum'
p5547
I3153
sS'downtown'
p5548
I4469
sS'diversionary'
p5549
I7530
sS'effort'
p5550
I1086
sS'bushels'
p5551
I4471
sS'fly'
p5552
I4472
sS'tokyo'
p5553
I464
sS'soup'
p5554
I1740
sS'romanticized'
p5555
I4473
sS'growing'
p5556
I445
sS'making'
p5557
I670
sS'carolina'
p5558
I951
sS'hiroshima'
p5559
I4474
sS'claim'
p5560
I1741
sS'kenneth'
p5561
I4475
sS'predict'
p5562
I4476
sS'confused'
p5563
I4477
sS'council'
p5564
I1510
sS'craze'
p5565
I3154
sS'chemical'
p5566
I1329
sS'hostage'
p5567
I5586
sS'sunday'
p5568
I4478
sS'pins'
p5569
I4479
sS'staying'
p5570
I7643
sS'145'
p5571
I4262
sS'140'
p5572
I3155
sS'may'
p5573
I118
sS'278.7'
p5574
I7652
sS'membership'
p5575
I2489
sS'mae'
p5576
I1742
sS'designed'
p5577
I626
sS'aisles'
p5578
I7663
sS'guys'
p5579
I7667
sS'man'
p5580
I904
sS'close-up'
p5581
I7678
sS'johnson'
p5582
I1196
sS'16,000'
p5583
I4481
sS'maybe'
p5584
I4482
sS'borrowing'
p5585
I4483
sS'switch'
p5586
I3156
sS'jail'
p5587
I2490
sS'deposit'
p5588
I2491
sS'african'
p5589
I3157
sS'basket'
p5590
I1743
sS'markkaa'
p5591
I4484
sS'talk'
p5592
I1744
sS'disclosure'
p5593
I4225
sS'pointed'
p5594
I3159
sS'shaky'
p5595
I7718
sS'entity'
p5596
I4485
sS'stability'
p5597
I3160
sS'fatalities'
p5598
I4486
sS'cuts'
p5599
I2492
sS'spinoff'
p5600
I1511
sS'group'
p5601
I152
sS'monitor'
p5602
I4487
sS'interesting'
p5603
I2047
sS'coaching'
p5604
I4488
sS'listing'
p5605
I4489
sS'policy'
p5606
I824
sS'main'
p5607
I1330
sS'texas'
p5608
I671
sS'repriced'
p5609
I7783
sS'finance'
p5610
I440
sS'views'
p5611
I1721
sS'sooner'
p5612
I4490
sS'killed'
p5613
I3161
sS'attorneys'
p5614
I1331
sS'truthful'
p5615
I5403
sS'proteins'
p5616
I4492
sS'jenrette'
p5617
I2493
sS's&p'
p5618
I281
sS's&l'
p5619
I4493
sS'speculators'
p5620
I3162
sS'girl'
p5621
I4495
sS'summary'
p5622
I7980
sS'canada'
p5623
I1745
sS'living'
p5624
I4496
sS'interference'
p5625
I3163
sS'miles'
p5626
I2139
sS'ymca'
p5627
I7912
sS'dutch'
p5628
I3164
sS'assurance'
p5629
I4497
sS'reames'
p5630
I3587
sS'mercantile'
p5631
I2048
sS'hefty'
p5632
I2494
sS'pumping'
p5633
I4498
sS'california'
p5634
I465
sS'advance'
p5635
I1512
sS'language'
p5636
I1746
sS'ministry'
p5637
I1197
sS'7\\/8'
p5638
I905
sS'thing'
p5639
I825
sS'think'
p5640
I446
sS'first'
p5641
I86
sS'americana'
p5642
I4499
sS'question'
p5643
I851
sS'crib'
p5644
I3165
sS'shipyard'
p5645
I1747
sS'americans'
p5646
I1748
sS'long'
p5647
I375
sS'suspended'
p5648
I1513
sS'carry'
p5649
I1087
sS'corporations'
p5650
I1514
sS'sounds'
p5651
I2495
sS'little'
p5652
I384
sS'anyone'
p5653
I1749
sS'plains'
p5654
I4501
sS'alfred'
p5655
I3167
sS'mining'
p5656
I2496
sS'privately'
p5657
I1780
sS'allegedly'
p5658
I3168
sS'moscow'
p5659
I1750
sS'hartford'
p5660
I3169
sS'elusive'
p5661
I6600
sS'11'
p5662
I672
sS'10'
p5663
I189
sS'13'
p5664
I372
sS'12'
p5665
I554
sS'15'
p5666
I258
sS'14'
p5667
I991
sS'17'
p5668
I768
sS'16'
p5669
I1088
sS'19'
p5670
I1751
sS'18'
p5671
I826
sS'gotta'
p5672
I4502
sS'venture'
p5673
I1515
sS'were'
p5674
I60
sS'350,000'
p5675
I4503
sS'topics'
p5676
I4403
sS'efficient'
p5677
I3170
sS'*ich*-4'
p5678
I2497
sS'potential'
p5679
I898
sS'*ich*-1'
p5680
I138
sS'*ich*-2'
p5681
I304
sS'*ich*-3'
p5682
I827
sS'bailey'
p5683
I3171
sS'performance'
p5684
I769
sS'registered'
p5685
I1703
sS'200'
p5686
I1089
sS'203'
p5687
I4424
sS'norman'
p5688
I4505
sS'normal'
p5689
I2049
sS'arguing'
p5690
I4428
sS'paid'
p5691
I627
sS'mehrens'
p5692
I4506
sS'assault'
p5693
I4507
sS'sheets'
p5694
I3172
sS'complaints'
p5695
I2498
sS'beth'
p5696
I2499
sS'conspicuous'
p5697
I4508
sS'especially'
p5698
I1332
sS'surprising'
p5699
I2050
sS'fills'
p5700
I4509
sS'trotter'
p5701
I2500
sS'rating'
p5702
I828
sS'shot'
p5703
I4510
sS'show'
p5704
I829
sS'contemporary'
p5705
I2501
sS'rep.'
p5706
I628
sS'dormitory'
p5707
I6220
sS'behind'
p5708
I2396
sS'black'
p5709
I1739
sS'treasury'
p5710
I259
sS'enthusiasm'
p5711
I4511
sS'pegged'
p5712
I4512
sS'fiber-end'
p5713
I7501
sS'get'
p5714
I208
sS'contracts'
p5715
I409
sS'employers'
p5716
I4513
sS'nearly'
p5717
I770
sS'secondary'
p5718
I3173
sS'yield'
p5719
I214
sS'morning'
p5720
I2502
sS'*-85'
p5721
I4514
sS'stupid'
p5722
I2503
sS'*-81'
p5723
I4515
sS'*-80'
p5724
I3174
sS'declared'
p5725
I2051
sS'6.1'
p5726
I4516
sS'seat'
p5727
I2052
sS'relative'
p5728
I2504
sS'j.'
p5729
I771
sS'eliminating'
p5730
I4517
sS'wonder'
p5731
I4518
sS'forecast'
p5732
I1752
sS'enough'
p5733
I588
sS'reading'
p5734
I1090
sS'checks'
p5735
I3984
sS'august'
p5736
I589
sS'parent'
p5737
I906
sS'killing'
p5738
I4519
sS'magna'
p5739
I2053
sS'trader'
p5740
I1753
sS'trades'
p5741
I590
sS'according'
p5742
I260
sS'disappointment'
p5743
I4520
sS'holders'
p5744
I1091
sS'traded'
p5745
I673
sS'among'
p5746
I250
sS'cancer'
p5747
I1516
sS'christie'
p5748
I6612
sS'maintained'
p5749
I2054
sS'89,500'
p5750
I6613
sS'disciplinary'
p5751
I3175
sS'considering'
p5752
I2506
sS'unusual'
p5753
I2058
sS'mark'
p5754
I907
sS'mary'
p5755
I992
sS'offered'
p5756
I410
sS'bmp'
p5757
I4521
sS'mcmillin'
p5758
I3192
sS'wake'
p5759
I2055
sS'prof.'
p5760
I4523
sS'those'
p5761
I175
sS'sound'
p5762
I1333
sS"n't"
p5763
I44
sS'novello'
p5764
I4524
sS'associates'
p5765
I1198
sS'ongoing'
p5766
I4525
sS'investigating'
p5767
I3176
sS'margin'
p5768
I1754
sS'eventually'
p5769
I1250
sS'middle'
p5770
I3177
sS'sudden'
p5771
I4526
sS'movements'
p5772
I4527
sS'par'
p5773
I1338
sS'pat'
p5774
I4528
sS'harsh'
p5775
I3178
sS'pay'
p5776
I261
sS'same'
p5777
I282
sS'17.3'
p5778
I4529
sS'speech'
p5779
I2507
sS'arguments'
p5780
I3718
sS'struggling'
p5781
I3179
sS'exhaust'
p5782
I4531
sS'jeffrey'
p5783
I4872
sS'oil'
p5784
I525
sS'assist'
p5785
I4532
sS'running'
p5786
I2056
sS'climbing'
p5787
I4534
sS'vose'
p5788
I4535
sS'drain'
p5789
I4536
sS'largely'
p5790
I908
sS'roughly'
p5791
I1334
sS'mortgages'
p5792
I2509
sS'bottle'
p5793
I1199
sS'easing'
p5794
I4537
sS'pa.'
p5795
I1755
sS'money'
p5796
I167
sS'miami-based'
p5797
I4614
sS'resolution'
p5798
I3180
sS'4'
I909
sS'maughan'
p5799
I4538
sS'extensive'
p5800
I4539
sS'pill'
p5801
I3181
sS'careers'
p5802
I4540
sS'admitting'
p5803
I1756
sS'boesel'
p5804
I4541
sS'hoylake'
p5805
I4542
sS'simmons'
p5806
I1200
sS'railroad'
p5807
I3182
sS'disappointed'
p5808
I2510
sS"'ve"
p5809
I773
sS'facing'
p5810
I2057
sS'chamber'
p5811
I3183
sS'either'
p5812
I1092
sS'served'
p5813
I4543
sS'voluntarily'
p5814
I4544
sS'dole'
p5815
I4545
sS'specified'
p5816
I4546
sS'prerogatives'
p5817
I4547
sS'booming'
p5818
I3184
sS'gross'
p5819
I4548
sS'genetics'
p5820
I3185
sS'pioneer'
p5821
I4549
sS'moderate'
p5822
I1757
sS'underwriters'
p5823
I3186
sS'manufactured'
p5824
I4550
sS'montedison'
p5825
I3255
sS'notably'
p5826
I3187
sS'broken'
p5827
I2059
sS'manufacturer'
p5828
I2691
sS'847'
p5829
I4551
sS'william'
p5830
I517
sS'conducting'
p5831
I4553
sS'free-enterprise'
p5832
I7662
sS'stations'
p5833
I1201
sS'island'
p5834
I4554
sS'violence'
p5835
I4679
sS'practical'
p5836
I4555
sS'airline'
p5837
I910
sS'pockets'
p5838
I4556
sS'mixed'
p5839
I1335
sS'road'
p5840
I2511
sS'coupon'
p5841
I1758
sS'vacation'
p5842
I2512
sS'strip'
p5843
I4557
sS'hutton'
p5844
I1759
sS'appears'
p5845
I1475
sS'railcars'
p5846
I3189
sS'sophisticated'
p5847
I2060
sS'emissions'
p5848
I1517
sS'fellow'
p5849
I4727
sS'file'
p5850
I1760
sS'film'
p5851
I1518
sS'again'
p5852
I717
sS'amendments'
p5853
I4558
sS'drivers'
p5854
I3190
sS'field'
p5855
I1202
sS'4,000'
p5856
I4748
sS'demobilize'
p5857
I7598
sS'students'
p5858
I357
sS'berman'
p5859
I4235
sS'nichol'
p5860
I3191
sS'important'
p5861
I674
sS'equitable'
p5862
I2513
sS'assets'
p5863
I555
sS'casts'
p5864
I4560
sS'boosters'
p5865
I4761
sS'boone'
p5866
I4562
sS'starting'
p5867
I2061
sS'represent'
p5868
I1519
sS'founder'
p5869
I2062
sS'dollar'
p5870
I675
sS'founded'
p5871
I2514
sS'current-carrying'
p5872
I1314
sS'chabrol'
p5873
I4564
sS'8300'
p5874
I4565
sS'talks'
p5875
I556
sS'children'
p5876
I1761
sS'waertsilae'
p5877
I1093
sS'swallow'
p5878
I7112
sS'test-coaching'
p5879
I4566
sS'premium'
p5880
I1203
sS'returning'
p5881
I4783
sS'removing'
p5882
I7163
sS'fall'
p5883
I447
sS'winning'
p5884
I2554
sS'difference'
p5885
I1204
sS'saudi'
p5886
I2515
sS'wedtech'
p5887
I911
sS'neighborhood'
p5888
I4567
sS'perception'
p5889
I4568
sS'perspective'
p5890
I4569
sS'lawyer'
p5891
I1520
sS'further'
p5892
I629
sS'aba'
p5893
I2063
sS'usia'
p5894
I993
sS'stood'
p5895
I2064
sS'public'
p5896
I321
sS'movement'
p5897
I3194
sS'6.79'
p5898
I4571
sS'ranged'
p5899
I2516
sS'squeezed'
p5900
I3654
sS'operating'
p5901
I411
sS'publishes'
p5902
I3195
sS'admits'
p5903
I3512
sS'900'
p5904
I1363
sS'prosecutors'
p5905
I2066
sS'leveling'
p5906
I4572
sS'significantly'
p5907
I2067
sS'uncharted'
p5908
I4573
sS'*-20'
p5909
I4574
sS'fifth-grade'
p5910
I3196
sS'buses'
p5911
I3197
sS'abortionist'
p5912
I4575
sS'establish'
p5913
I4863
sS'donaldson'
p5914
I2518
sS'shareholders'
p5915
I676
sS'eye'
p5916
I3198
sS'*-29'
p5917
I4806
sS'interest-bearing'
p5918
I6712
sS'furukawa'
p5919
I4576
sS'two'
p5920
I93
sS'*-28'
p5921
I4807
sS'0.82'
p5922
I3200
sS'furor'
p5923
I3201
sS'school-research'
p5924
I7167
sS'diamond'
p5925
I3202
sS'purse'
p5926
I3655
sS'controlling'
p5927
I3203
sS'particular'
p5928
I1762
sS'town'
p5929
I4579
sS'none'
p5930
I1336
sS'hour'
p5931
I1763
sS'strain'
p5932
I5560
sS'specializes'
p5933
I4889
sS'guards'
p5934
I2068
sS'remain'
p5935
I994
sS'del'
p5936
I4580
sS'halts'
p5937
I3204
sS'abandon'
p5938
I4582
sS'strategies'
p5939
I3205
sS'purchases'
p5940
I1337
sS'compare'
p5941
I4583
sS'share'
p5942
I88
sS'ps'
p5943
I1497
sS'minimum'
p5944
I913
sS'beall'
p5945
I4900
sS'purchased'
p5946
I2519
sS'sharp'
p5947
I1521
sS'einhorn'
p5948
I4584
sS'needs'
p5949
I3353
sS'subminimum'
p5950
I4585
sS'plans'
p5951
I310
sS'acts'
p5952
I4586
sS'advice'
p5953
I4587
sS'different'
p5954
I716
sS'fast-growing'
p5955
I4588
sS'blood'
p5956
I3358
sS'faculty'
p5957
I4921
sS'response'
p5958
I2070
sS'responsibility'
p5959
I3206
sS'playing'
p5960
I1522
sS'setback'
p5961
I4589
sS'appeals'
p5962
I2520
sS'through'
p5963
I230
sS'filters'
p5964
I1764
sS'suffer'
p5965
I2071
sS'24'
p5966
I1339
sS'25'
p5967
I995
sS'26'
p5968
I4590
sS'27'
p5969
I2521
sS'20'
p5970
I466
sS'21'
p5971
I1094
sS'22'
p5972
I3207
sS'23'
p5973
I1340
sS'pcs'
p5974
I2072
sS'28'
p5975
I3208
sS'29'
p5976
I2522
sS'seasonally'
p5977
I4591
sS'late'
p5978
I597
sS'reuters'
p5979
I1205
sS"o'brien"
p5980
I4530
sS'hurting'
p5981
I4593
sS'someone'
p5982
I1814
sS'seeking'
p5983
I591
sS'primary'
p5984
I4811
sS'compound'
p5985
I2073
sS'stepped'
p5986
I3264
sS'association'
p5987
I452
sS'easily'
p5988
I2523
sS'robbie'
p5989
I4594
sS'ports'
p5990
I3210
sS'harm'
p5991
I4595
sS'everyone'
p5992
I3211
sS'mental'
p5993
I1765
sS'house'
p5994
I155
sS'energy'
p5995
I775
sS'hard'
p5996
I914
sS'buy-outs'
p5997
I2508
sS'macmillan'
p5998
I4596
sS'engaging'
p5999
I4597
sS'extended'
p6000
I2524
sS'randolph'
p6001
I3212
sS'insurance'
p6002
I448
sS'initiatives'
p6003
I2074
sS'rosenblum'
p6004
I4598
sS'acting'
p6005
I5424
sS'print'
p6006
I1523
sS'bougainville'
p6007
I3213
sS'extraordinary'
p6008
I2157
sS'members'
p6009
I467
sS'backed'
p6010
I3214
sS'beginning'
p6011
I1095
sS'benefits'
p6012
I1096
sS'computers'
p6013
I708
sS'copper'
p6014
I2525
sS'instances'
p6015
I4599
sS'done'
p6016
I2076
sS'arbitragers'
p6017
I7551
sS'revive'
p6018
I4600
sS'least'
p6019
I468
sS'multi-crystal'
p6020
I3328
sS'regulation'
p6021
I3412
sS'assumption'
p6022
I3215
sS'statement'
p6023
I997
sS'compromise'
p6024
I1341
sS'188'
p6025
I4601
sS'nbi'
p6026
I2527
sS'park'
p6027
I1342
sS'sizable'
p6028
I2077
sS'part'
p6029
I267
sS'favorable'
p6030
I4603
sS'believe'
p6031
I998
sS'hearst'
p6032
I831
sS'gotten'
p6033
I3124
sS'youth'
p6034
I3216
sS'contrary'
p6035
I4604
sS'messrs.'
p6036
I3217
sS'treated'
p6037
I4605
sS'2029'
p6038
I3218
sS'philippine'
p6039
I4606
sS'orders'
p6040
I343
sS'built'
p6041
I719
sS'shelby'
p6042
I7712
sS'gorbachev'
p6043
I3219
sS'k.'
p6044
I2528
sS'majority'
p6045
I1524
sS'build'
p6046
I1097
sS'medium-sized'
p6047
I3220
sS'most'
p6048
I114
sS'significant'
p6049
I786
sS'services'
p6050
I385
sS'extremely'
p6051
I2530
sS'7.272'
p6052
I3221
sS'esso'
p6053
I4607
sS'primerica'
p6054
I2531
sS'goodwill'
p6055
I4608
sS'weigh'
p6056
I4609
sS'joining'
p6057
I3222
sS'sector'
p6058
I720
sS'thomas'
p6059
I832
sS'particularly'
p6060
I630
sS'obligations'
p6061
I3223
sS'commissions'
p6062
I4610
sS'businesses'
p6063
I1206
sS'fine'
p6064
I412
sS'find'
p6065
I677
sS'giant'
p6066
I1525
sS'merger'
p6067
I1766
sS'sugarman'
p6068
I5101
sS'8'
I293
sS'merged'
p6069
I4612
sS'boulder'
p6070
I4613
sS'permission'
p6071
I3225
sS'express'
p6072
I557
sS'cheaper'
p6073
I2078
sS'merchandise'
p6074
I4615
sS'resolve'
p6075
I4616
sS'doubled'
p6076
I3226
sS'six-month'
p6077
I1767
sS'common'
p6078
I168
sS'restaurants'
p6079
I3227
sS'individual'
p6080
I1098
sS'surrendered'
p6081
I3228
sS'tender'
p6082
I2079
sS'feared'
p6083
I3464
sS'expert'
p6084
I2687
sS'fans'
p6085
I3229
sS'weekly'
p6086
I2789
sS'kidnapper'
p6087
I7567
sS'responses'
p6088
I3284
sS'dividends'
p6089
I569
sS'environmentalists'
p6090
I4621
sS'aircraft'
p6091
I4622
sS'half-hour'
p6092
I3231
sS'full-time'
p6093
I4623
sS'appropriations'
p6094
I386
sS'annual'
p6095
I678
sS'foreign'
p6096
I413
sS'baltimore'
p6097
I2534
sS'inouye'
p6098
I4624
sS'point'
p6099
I344
sS'simple'
p6100
I3232
sS'ga.'
p6101
I4625
sS'simply'
p6102
I1526
sS'n.v'
p6103
I6468
sS'throughout'
p6104
I2081
sS'expensive'
p6105
I1099
sS'platinum'
p6106
I4626
sS'n.v.'
p6107
I3233
sS'raise'
p6108
I592
sS'instrument'
p6109
I5771
sS'create'
p6110
I1768
sS'strings'
p6111
I3916
sS'creativity'
p6112
I4627
sS'meeting'
p6113
I776
sS'vans'
p6114
I2082
sS'gas'
p6115
I1769
sS'priced'
p6116
I492
sS'understand'
p6117
I3234
sS'prices'
p6118
I110
sS'gaf'
p6119
I2083
sS'classifications'
p6120
I5192
sS'963'
p6121
I5195
sS'solid'
p6122
I2535
sS'bill'
p6123
I283
sS'elections'
p6124
I1527
sS'replaced'
p6125
I2084
sS'redevelopment'
p6126
I4628
sS'century'
p6127
I2536
sS'cents'
p6128
I140
sS'coniston'
p6129
I3511
sS'dugdale'
p6130
I7571
sS'italy'
p6131
I3235
sS'textile'
p6132
I3236
sS'proved'
p6133
I4101
sS'ruth'
p6134
I5295
sS'one-hour'
p6135
I3237
sS'unwary'
p6136
I5296
sS'currencies'
p6137
I4629
sS'belfry'
p6138
I3238
sS'yesterday'
p6139
I160
sS'moment'
p6140
I3239
sS'purpose'
p6141
I1770
sS'task'
p6142
I3240
sS'rules'
p6143
I1481
sS'spent'
p6144
I1529
sS'withdraw'
p6145
I3241
sS'swiss'
p6146
I2085
sS'amps'
p6147
I5350
sS'spend'
p6148
I3242
sS'preference'
p6149
I4630
sS'one-year'
p6150
I1771
sS'junk-bond'
p6151
I1772
sS'shape'
p6152
I3243
sS'openly'
p6153
I4632
sS'alternative'
p6154
I2086
sS'injuries'
p6155
I4633
sS'wage'
p6156
I643
sS'cut'
p6157
I449
sS'source'
p6158
I1530
sS'regimented'
p6159
I5409
sS'administrative'
p6160
I2087
sS'heidelberg'
p6161
I5416
sS'big'
p6162
I131
sS'rebound'
p6163
I2750
sS'matters'
p6164
I4635
sS'redeem'
p6165
I4636
sS'cask'
p6166
I3695
sS'foreigners'
p6167
I4637
sS'bit'
p6168
I4638
sS'follows'
p6169
I3244
sS'depositary'
p6170
I3245
sS'often'
p6171
I450
sS'back'
p6172
I414
sS'3\\/4'
p6173
I558
sS'strongest'
p6174
I2537
sS'pricing'
p6175
I2538
sS'mirror'
p6176
I4639
sS'3\\/8'
p6177
I915
sS'scale'
p6178
I4640
sS'contacts'
p6179
I4641
sS'pet'
p6180
I2539
sS'decision'
p6181
I593
sS'integration'
p6182
I4642
sS'per'
p6183
I1531
sS'eliminate'
p6184
I1773
sS'laughing'
p6185
I3246
sS'antitrust-law'
p6186
I5538
sS'300'
p6187
I1532
sS'continuing'
p6188
I833
sS'use'
p6189
I315
sS'from'
p6190
I31
sS'goods'
p6191
I916
sS'mrs.'
p6192
I171
sS'ounce'
p6193
I2088
sS'jennison'
p6194
I4643
sS'triton'
p6195
I3247
sS'plenty'
p6196
I3322
sS'lesson'
p6197
I3248
sS'bankruptcy'
p6198
I1000
sS'pharmaceuticals'
p6199
I3249
sS'1.55'
p6200
I4645
sS'forward'
p6201
I3250
sS'anti-dumping'
p6202
I3251
sS'adjusting'
p6203
I4646
sS'boys'
p6204
I4647
sS'hopes'
p6205
I1208
sS'subsidiary'
p6206
I1774
sS'excision'
p6207
I2540
sS'perritt'
p6208
I4648
sS"'re"
p6209
I345
sS'viacom'
p6210
I1775
sS'metal'
p6211
I2600
sS'single'
p6212
I1035
sS'curb'
p6213
I4649
sS'markdowns'
p6214
I4650
sS'denying'
p6215
I1776
sS'brownell'
p6216
I4651
sS'%'
I26
sS'mininum-wage'
p6217
I7584
sS'reputation'
p6218
I3252
sS'1738.1'
p6219
I6699
sS'enterprise'
p6220
I4652
sS'prepared'
p6221
I1343
sS'lens'
p6222
I2542
sS'lent'
p6223
I4653
sS'vehicles'
p6224
I1618
sS'bankers'
p6225
I1534
sS'2000'
p6226
I4654
sS'2005'
p6227
I4655
sS'2009'
p6228
I1344
sS'debenture'
p6229
I4656
sS'whiting'
p6230
I2543
sS'intricate'
p6231
I5861
sS'eggers'
p6232
I3253
sS'15,000'
p6233
I526
sS'appointed'
p6234
I7588
sS'quarterly'
p6235
I2089
sS'mehta'
p6236
I4657
sS'automotive'
p6237
I3711
sS'putting'
p6238
I4658
sS'surgeon'
p6239
I5237
sS'entire'
p6240
I2090
sS'integra'
p6241
I4659
sS'educators'
p6242
I2544
sS'crop'
p6243
I1040
sS'carla'
p6244
I4660
sS'scientific'
p6245
I2256
sS'edison'
p6246
I494
sS'chicago'
p6247
I242
sS'giving'
p6248
I1345
sS'pipes'
p6249
I6000
sS'practices'
p6250
I1961
sS'access'
p6251
I1535
sS'exercise'
p6252
I1778
sS'exchange'
p6253
I139
sS'jointly'
p6254
I1346
sS'sink'
p6255
I4662
sS'others'
p6256
I834
sS'39'
p6257
I4663
sS'33'
p6258
I1779
sS'32'
p6259
I2545
sS'31'
p6260
I721
sS'30'
p6261
I203
sS'37'
p6262
I3256
sS'hollingsworth'
p6263
I4664
sS'35'
p6264
I2091
sS'34'
p6265
I4665
sS'implement'
p6266
I4666
sS'honor'
p6267
I2092
sS'fourth-quarter'
p6268
I1536
sS'named'
p6269
I469
sS'crashing'
p6270
I7049
sS'presidents'
p6271
I3257
sS'baskets'
p6272
I5449
sS'*t*-36'
p6273
I4667
sS'*t*-37'
p6274
I3770
sS'*t*-34'
p6275
I4668
sS'*t*-35'
p6276
I4669
sS'decrease'
p6277
I4670
sS'*t*-33'
p6278
I4439
sS'*t*-30'
p6279
I4442
sS'*t*-31'
p6280
I4671
sS'scandal'
p6281
I2546
sS'*t*-38'
p6282
I4672
sS'ushers'
p6283
I7593
sS'male-only'
p6284
I6140
sS'kangyo'
p6285
I4674
sS'year-ago'
p6286
I4133
sS'butler'
p6287
I4675
sS'themselves'
p6288
I1001
sS'defendant'
p6289
I4676
sS'train'
p6290
I2547
sS'prizes'
p6291
I4677
sS'iii'
p6292
I2851
sS'account'
p6293
I835
sS'f'
I4678
sS'closing'
p6294
I1537
sS'superdome'
p6295
I4680
sS'effectively'
p6296
I4681
sS'reserves'
p6297
I1209
sS'employs'
p6298
I3259
sS'lama'
p6299
I2865
sS'democracy'
p6300
I2549
sS'holds'
p6301
I2550
sS'hampshire'
p6302
I1347
sS'regions'
p6303
I3261
sS'responsibilities'
p6304
I3828
sS'stock'
p6305
I69
sS'buildings'
p6306
I3262
sS'de'
p6307
I2551
sS'highs'
p6308
I3835
sS'united'
p6309
I567
sS'billings'
p6310
I4682
sS'*t*-68'
p6311
I3975
sS'lines'
p6312
I1781
sS'cuvees'
p6313
I6342
sS'chief'
p6314
I195
sS'10-day'
p6315
I2552
sS'7\\/16'
p6316
I4683
sS'institutional'
p6317
I1538
sS'agricultural'
p6318
I2877
sS'industries'
p6319
I631
sS'bridges'
p6320
I2553
sS'revived'
p6321
I4684
sS'*t*-62'
p6322
I6715
sS'la'
p6323
I1348
sS'arrangements'
p6324
I7260
sS'li'
p6325
I3868
sS'willing'
p6326
I1539
sS'criminal'
p6327
I1100
sS'greater'
p6328
I1002
sS'dam'
p6329
I2093
sS'dan'
p6330
I4685
sS'mention'
p6331
I3265
sS'cutting'
p6332
I2094
sS'courtroom'
p6333
I4686
sS'day'
p6334
I470
sS'capital-gains'
p6335
I4687
sS'february'
p6336
I3266
sS'profit-taking'
p6337
I4688
sS'l.'
p6338
I1782
sS'warned'
p6339
I2556
sS'identified'
p6340
I3267
sS'berliner'
p6341
I3268
sS'constraints'
p6342
I3904
sS'apologize'
p6343
I5809
sS'restructured'
p6344
I4689
sS'portrayal'
p6345
I5811
sS'announcer'
p6346
I2558
sS'hormats'
p6347
I4690
sS'electronics'
p6348
I1349
sS'red'
p6349
I2559
sS'franc'
p6350
I4691
sS'harold'
p6351
I4692
sS'pharmaceutical'
p6352
I1784
sS'frank'
p6353
I3271
sS'fourteen'
p6354
I6551
sS'clarify'
p6355
I3931
sS'receipts'
p6356
I3272
sS'bowman'
p6357
I4693
sS'retain'
p6358
I4694
sS'retail'
p6359
I1210
sS'south'
p6360
I277
sS'2,000'
p6361
I3273
sS'strategic'
p6362
I4695
sS'reached'
p6363
I632
sS'ancient'
p6364
I3274
sS'intermediate'
p6365
I4696
sS'scant'
p6366
I6667
sS'georgetown'
p6367
I4697
sS'uptick'
p6368
I2155
sS'completed'
p6369
I836
sS'nobody'
p6370
I4000
sS'environmental'
p6371
I1785
sS'spiegel'
p6372
I1101
sS'discretionary'
p6373
I4699
sS'loved'
p6374
I4700
sS'counteract'
p6375
I6987
sS'compensation'
p6376
I3275
sS'counting'
p6377
I7231
sS'fluctuation'
p6378
I4702
sS'have'
p6379
I42
sS'apparently'
p6380
I777
sS'dallas'
p6381
I1786
sS'newgate'
p6382
I4703
sS'davies'
p6383
I5559
sS'incentive'
p6384
I2560
sS'mix'
p6385
I3276
sS'concerns'
p6386
I1102
sS'shipyards'
p6387
I6806
sS'cosby'
p6388
I1350
sS'unless'
p6389
I1211
sS'eight'
p6390
I2561
sS'preliminary'
p6391
I1787
sS'payment'
p6392
I1351
sS'cannell'
p6393
I3277
sS'thunderbird'
p6394
I4244
sS'disease'
p6395
I2562
sS'1,000'
p6396
I1540
sS'denouncing'
p6397
I4705
sS'callers'
p6398
I4706
sS'eurobonds'
p6399
I4707
sS'normally'
p6400
I2563
sS'recess'
p6401
I4708
sS'text'
p6402
I3278
sS'supported'
p6403
I4709
sS'erbamont'
p6404
I4710
sS'portfolio'
p6405
I1352
sS'staff'
p6406
I1212
sS'knowledge'
p6407
I2564
sS'controls'
p6408
I2095
sS'communist'
p6409
I4711
sS'photographs'
p6410
I4712
sS'lobo'
p6411
I6927
sS'beat'
p6412
I1789
sS'czechoslovakia'
p6413
I2565
sS'hopefully'
p6414
I3326
sS'miss.'
p6415
I4713
sS'areas'
p6416
I1003
sS'teams'
p6417
I3279
sS'ballplayers'
p6418
I2960
sS'fixed'
p6419
I1299
sS'shapiro'
p6420
I4714
sS'national'
p6421
I387
sS'svenska'
p6422
I4715
sS'lotter'
p6423
I7034
sS'vicars'
p6424
I4716
sS'attempting'
p6425
I1980
sS'pattern'
p6426
I5314
sS'forest-products'
p6427
I4718
sS'routine'
p6428
I4719
sS'progress'
p6429
I2097
sS'indexers'
p6430
I4926
sS'deliver'
p6431
I3280
sS'taking'
p6432
I917
sS'equal'
p6433
I2567
sS'attributed'
p6434
I2098
sS'pulp'
p6435
I4720
sS'swim'
p6436
I7124
sS'passing'
p6437
I4721
sS'otherwise'
p6438
I4722
sS'comment'
p6439
I633
sS'copies'
p6440
I2099
sS'downgraded'
p6441
I6735
sS'indicators'
p6442
I2100
sS'proposal'
p6443
I560
sS'curtail'
p6444
I3790
sS'citadel'
p6445
I3281
sS'climate'
p6446
I4724
sS'bulk'
p6447
I2377
sS'finished'
p6448
I2568
sS'tense'
p6449
I4725
sS'bull'
p6450
I4726
sS'general'
p6451
I291
sS'homes'
p6452
I2999
sS'value'
p6453
I405
sS'manually'
p6454
I4728
sS'almost'
p6455
I471
sS'*t*-10'
p6456
I4729
sS'*t*-11'
p6457
I4730
sS'*t*-12'
p6458
I4731
sS'*t*-13'
p6459
I4732
sS'*t*-14'
p6460
I4733
sS'*t*-15'
p6461
I4734
sS'*t*-16'
p6462
I4735
sS'egnuss'
p6463
I4736
sS'*t*-18'
p6464
I4737
sS'*t*-19'
p6465
I4738
sS'shearson'
p6466
I679
sS'tumbled'
p6467
I3283
sS'administration'
p6468
I332
sS'felten'
p6469
I4494
sS'cluff'
p6470
I7302
sS'material'
p6471
I1213
sS'reporting'
p6472
I1790
sS'giuliani'
p6473
I2569
sS'scholars'
p6474
I4739
sS'center'
p6475
I1214
sS'nevertheless'
p6476
I4740
sS'ious'
p6477
I7348
sS'antonio'
p6478
I3285
sS'thought'
p6479
I1353
sS'sets'
p6480
I2101
sS'position'
p6481
I837
sS'soviet'
p6482
I561
sS'usual'
p6483
I3457
sS'stores'
p6484
I1103
sS'executive'
p6485
I146
sS'domestic'
p6486
I918
sS'interim'
p6487
I4196
sS'seats'
p6488
I1354
sS'tough'
p6489
I3988
sS'ads'
p6490
I1541
sS'demographic'
p6491
I4741
sS'lake'
p6492
I2571
sS'add'
p6493
I2102
sS'citizen'
p6494
I3286
sS'ought'
p6495
I4742
sS'tests'
p6496
I680
sS'like'
p6497
I181
sS'success'
p6498
I4211
sS'*-52'
p6499
I2572
sS'admitted'
p6500
I4743
sS'refile'
p6501
I6746
sS'works'
p6502
I1355
sS'soft'
p6503
I4745
sS'14-hour'
p6504
I7483
sS'italian'
p6505
I2573
sS'applicability'
p6506
I6748
sS'alive'
p6507
I3541
sS'*-58'
p6508
I6749
sS'supportive'
p6509
I4747
sS'happens'
p6510
I5928
sS'0.25'
p6511
I3288
sS'blackstone'
p6512
I7607
sS'hurricane'
p6513
I2574
sS'shelter'
p6514
I4749
sS'assuming'
p6515
I2103
sS'accident'
p6516
I7055
sS'stellar'
p6517
I4750
sS'lieutenant'
p6518
I7570
sS'host'
p6519
I2575
sS'expire'
p6520
I1791
sS'although'
p6521
I416
sS'worthy'
p6522
I7574
sS'snapped'
p6523
I4752
sS'panel'
p6524
I3289
sS'copper-rich'
p6525
I7583
sS'about'
p6526
I58
sS'actual'
p6527
I1356
sS'smartly'
p6528
I7591
sS'introduced'
p6529
I1106
sS'index-fund'
p6530
I5303
sS'guard'
p6531
I1107
sS'female'
p6532
I2104
sS'minneapolis-based'
p6533
I7821
sS'1986'
p6534
I1357
sS'1987'
p6535
I388
sS'1984'
p6536
I1358
sS'1985'
p6537
I722
sS'1982'
p6538
I2105
sS'1983'
p6539
I2576
sS'rushed'
p6540
I4753
sS'1988'
p6541
I243
sS'awarded'
p6542
I3291
sS'biggest'
p6543
I1792
sS'chunk'
p6544
I4261
sS'buy'
p6545
I190
sS'insurer'
p6546
I4755
sS'coke'
p6547
I7693
sS'but'
p6548
I45
sS'8.25'
p6549
I4756
sS'money-fund'
p6550
I7704
sS'partially'
p6551
I3292
sS'wish'
p6552
I2577
sS'minutes'
p6553
I3293
sS'supreme'
p6554
I1108
sS'deaths'
p6555
I2106
sS'periods'
p6556
I4757
sS'83'
p6557
I7422
sS'pit'
p6558
I4758
sS'proceeds'
p6559
I4307
sS'48'
p6560
I2578
sS'49'
p6561
I2579
sS'46'
p6562
I2580
sS'corporation'
p6563
I4759
sS'44'
p6564
I3294
sS'45'
p6565
I1215
sS'42'
p6566
I4760
sS'43'
p6567
I3295
sS'40'
p6568
I472
sS'41'
p6569
I2581
sS'sewer'
p6570
I6908
sS'85'
p6571
I2624
sS'dresser'
p6572
I4762
sS'shrank'
p6573
I4763
sS'test-preparation'
p6574
I4764
sS'baker'
p6575
I3296
sS'limited'
p6576
I1216
sS'facilities'
p6577
I2582
sS'sleep'
p6578
I3297
sS'assembled'
p6579
I4765
sS'poorly'
p6580
I2450
sS'sanford'
p6581
I7942
sS'feeding'
p6582
I2583
sS'violate'
p6583
I1793
sS'under'
p6584
I141
sS'merchant'
p6585
I2107
sS'@'
I5615
sS'lure'
p6586
I2584
sS'risk'
p6587
I1217
sS'rise'
p6588
I528
sS'every'
p6589
I562
sS'jack'
p6590
I2108
sS'school'
p6591
I312
sS'cause'
p6592
I977
sS'leaders'
p6593
I1080
sS'weddings'
p6594
I4766
sS'estimates'
p6595
I1542
sS'direct'
p6596
I1109
sS'surrounding'
p6597
I4378
sS'street'
p6598
I266
sS'estimated'
p6599
I563
sS'blue'
p6600
I2110
sS'solemn'
p6601
I5797
sS'beaten'
p6602
I3298
sS'profitability'
p6603
I2585
sS'poison'
p6604
I4768
sS'conduct'
p6605
I3118
sS'supplies'
p6606
I2586
sS'seeks'
p6607
I3299
sS'kicked'
p6608
I4769
sS'hundreds'
p6609
I4770
sS'pratt'
p6610
I2587
sS'studio'
p6611
I4771
sS'kicker'
p6612
I4772
sS'represented'
p6613
I3300
sS'aftermath'
p6614
I4773
sS'voice'
p6615
I594
sS'auction'
p6616
I2111
sS'leaves'
p6617
I3301
sS'changed'
p6618
I919
sS'analysts'
p6619
I278
sS'chateau'
p6620
I3302
sS'changes'
p6621
I988
sS'york'
p6622
I96
sS'prints'
p6623
I4774
sS'2.07'
p6624
I7528
sS'swings'
p6625
I2588
sS'would'
p6626
I59
sS'hospital'
p6627
I3303
sS'm.'
p6628
I1218
sS'discrepancies'
p6629
I4775
sS'noting'
p6630
I4776
sS'asset'
p6631
I2589
sS'pepperidge'
p6632
I4777
sS'cullowhee'
p6633
I6535
sS'phone'
p6634
I4778
sS'connecticut'
p6635
I1543
sS'must'
p6636
I595
sS'me'
p6637
I1304
sS'join'
p6638
I3304
sS'deficiencies'
p6639
I4779
sS'install'
p6640
I4780
sS'henry'
p6641
I2590
sS'my'
p6642
I564
sS'estate'
p6643
I1110
sS'diminished'
p6644
I4267
sS'preserving'
p6645
I4782
sS'keep'
p6646
I723
sS'attract'
p6647
I2591
sS'guarantee'
p6648
I3305
sS'end'
p6649
I373
sS'writers'
p6650
I3306
sS'widespread'
p6651
I2113
sS'badly'
p6652
I3307
sS'elizabeth'
p6653
I4784
sS'homelessness'
p6654
I1242
sS'parallel'
p6655
I4785
sS'amid'
p6656
I4786
sS'patent'
p6657
I1163
sS'executed'
p6658
I3309
sS'interpretation'
p6659
I3310
sS'over'
p6660
I115
sS'expects'
p6661
I634
sS'*t*-78'
p6662
I4788
sS'london'
p6663
I358
sS'*t*-72'
p6664
I4789
sS'*t*-71'
p6665
I4790
sS'*t*-76'
p6666
I4791
sS'*t*-77'
p6667
I4792
sS'*t*-75'
p6668
I4793
sS'kalipharma'
p6669
I4794
sS'expectations'
p6670
I2592
sS'writing'
p6671
I3311
sS'16.7'
p6672
I3312
sS'tramp'
p6673
I1795
sS'400'
p6674
I3313
sS'eugene'
p6675
I4795
sS'iowa'
p6676
I1359
sS'diseases'
p6677
I2114
sS'payouts'
p6678
I2593
sS'143.80'
p6679
I3314
sS'30-year'
p6680
I1219
sS'netherlands'
p6681
I4796
sS'detroit'
p6682
I2594
sS'herald'
p6683
I778
sS'filling'
p6684
I3315
sS'dollar-denominated'
p6685
I3316
sS'affiliate'
p6686
I2595
sS'victory'
p6687
I4797
sS'each'
p6688
I226
sS'signing'
p6689
I4798
sS'stockbrokers'
p6690
I2596
sS'large'
p6691
I338
sS'driving'
p6692
I3317
sS'got'
p6693
I681
sS'newly'
p6694
I3193
sS'independence'
p6695
I4799
sS'sept.'
p6696
I1004
sS'associate'
p6697
I4570
sS'rail'
p6698
I5962
sS'free'
p6699
I682
sS'fred'
p6700
I3318
sS'*-24'
p6701
I4801
sS'*-27'
p6702
I4802
sS'*-26'
p6703
I4803
sS'*-21'
p6704
I4804
sS'rain'
p6705
I2115
sS'*-22'
p6706
I4805
sS'wanted'
p6707
I920
sS'reinstatement'
p6708
I3199
sS'mcguigan'
p6709
I4577
sS'days'
p6710
I191
sS'pence'
p6711
I1220
sS'smokers'
p6712
I4808
sS'onto'
p6713
I4809
sS'industrial'
p6714
I389
sS'researcher'
p6715
I3319
sS'attractions'
p6716
I4810
sS'encouraging'
p6717
I3209
sS'hearing'
p6718
I1796
sS'relations'
p6719
I1005
sS'mercury'
p6720
I4812
sS'revival'
p6721
I4813
sS'top'
p6722
I1360
sS'heights'
p6723
I2116
sS'ton'
p6724
I4814
sS'too'
p6725
I417
sS'tom'
p6726
I4602
sS'percentage'
p6727
I1221
sS'consented'
p6728
I1006
sS'ceiling'
p6729
I1112
sS'murder'
p6730
I4815
sS'*t*-154'
p6731
I6787
sS'serve'
p6732
I2529
sS'took'
p6733
I374
sS'western'
p6734
I1007
sS'longer-term'
p6735
I3224
sS'scenario'
p6736
I4817
sS'frankly'
p6737
I4818
sS'nominate'
p6738
I4819
sS'classes'
p6739
I4820
sS'elco'
p6740
I4631
sS'bridge'
p6741
I2597
sS'ran'
p6742
I1797
sS'talking'
p6743
I2598
sS'petersen'
p6744
I4821
sS'seminar'
p6745
I4822
sS'relatively'
p6746
I1113
sS'traditionally'
p6747
I3320
sS'harper'
p6748
I2117
sS'1965'
p6749
I4823
sS'-'
I2599
sS'oriented'
p6750
I4824
sS'hatch'
p6751
I4825
sS'rider'
p6752
I3321
sS'cigna'
p6753
I4846
sS'though'
p6754
I359
sS'8.07'
p6755
I4827
sS'8.04'
p6756
I4644
sS'avrett'
p6757
I7608
sS'*-84'
p6758
I4828
sS'flow'
p6759
I2142
sS'yang'
p6760
I3323
sS'after-tax'
p6761
I2601
sS'contacted'
p6762
I3324
sS'reductions'
p6763
I2602
sS'random'
p6764
I921
sS'radio'
p6765
I1008
sS'pinocchio'
p6766
I4829
sS'delays'
p6767
I4830
sS'minnesota'
p6768
I4831
sS'asbestos'
p6769
I1222
sS'watch'
p6770
I1223
sS'criticized'
p6771
I4832
sS'despite'
p6772
I451
sS'report'
p6773
I231
sS'countries'
p6774
I683
sS'pro-choice'
p6775
I6188
sS'automatic'
p6776
I3325
sS'mergers'
p6777
I2603
sS'habit'
p6778
I4833
sS'1960s'
p6779
I4834
sS'disturbing'
p6780
I4835
sS'capacity'
p6781
I838
sS'michelin'
p6782
I2118
sS'temptation'
p6783
I4836
sS'continually'
p6784
I5091
sS'7.88'
p6785
I2566
sS'approach'
p6786
I1361
sS'weak'
p6787
I2604
sS'however'
p6788
I305
sS'mazda'
p6789
I4837
sS'southeast'
p6790
I1362
sS'censorship'
p6791
I4838
sS'news'
p6792
I346
sS'improve'
p6793
I1009
sS'protect'
p6794
I3327
sS'referral'
p6795
I7686
sS'players'
p6796
I2120
sS'games'
p6797
I4839
sS'faces'
p6798
I4840
sS'sullivan'
p6799
I2121
sS'betting'
p6800
I4841
sS'trust'
p6801
I1364
sS'staggering'
p6802
I6194
sS'conference'
p6803
I839
sS'ropes'
p6804
I2605
sS'been'
p6805
I72
sS'quickly'
p6806
I840
sS'beneficiary'
p6807
I7843
sS'spread'
p6808
I1964
sS'expected'
p6809
I192
sS'containers'
p6810
I779
sS'30-day'
p6811
I1365
sS'publisher'
p6812
I3329
sS'drugs'
p6813
I1114
sS'water-authority'
p6814
I6909
sS'nipponese'
p6815
I4842
sS'petrus'
p6816
I3330
sS'teachers'
p6817
I1115
sS'procedure'
p6818
I4843
sS'accessories'
p6819
I2606
sS'expenses'
p6820
I1366
sS'experts'
p6821
I1798
sS'suggest'
p6822
I2122
sS'wound'
p6823
I4787
sS'complex'
p6824
I2123
sS'several'
p6825
I294
sS'peaks'
p6826
I4844
sS'empowers'
p6827
I7892
sS'afraid'
p6828
I3463
sS'characters'
p6829
I4845
sS'insisted'
p6830
I3332
sS'shortly'
p6831
I2607
sS'savings'
p6832
I529
sS'greatest'
p6833
I4826
sS'mother'
p6834
I3333
sS'proposed'
p6835
I530
sS'unemployment'
p6836
I3334
sS'thumbs'
p6837
I5899
sS'campbell'
p6838
I390
sS'rumor'
p6839
I4847
sS'reversal'
p6840
I7998
sS'gave'
p6841
I1224
sS'casting'
p6842
I4848
sS'hermitage'
p6843
I4849
sS'advances'
p6844
I4850
sS'breaks'
p6845
I3335
sS'judge'
p6846
I473
sS'advanced'
p6847
I922
sS'exxon'
p6848
I4851
sS'59'
p6849
I2124
sS'58'
p6850
I2608
sS'gift'
p6851
I4852
sS'55'
p6852
I1225
sS'contradict'
p6853
I4853
sS'51'
p6854
I2125
sS'50'
p6855
I244
sS'53'
p6856
I4854
sS'52'
p6857
I3336
sS'specific'
p6858
I4855
sS'offices'
p6859
I2609
sS'officer'
p6860
I347
sS'*t*-54'
p6861
I4856
sS'*t*-55'
p6862
I4857
sS'*t*-56'
p6863
I4858
sS'*t*-57'
p6864
I4859
sS'*t*-50'
p6865
I4860
sS'*t*-51'
p6866
I3337
sS'*t*-58'
p6867
I4861
sS'malaysia'
p6868
I1799
sS'donald'
p6869
I2126
sS'advertise'
p6870
I3338
sS'cooper'
p6871
I4862
sS'everything'
p6872
I4864
sS'expires'
p6873
I7697
sS'suspensions'
p6874
I4866
sS'corn'
p6875
I495
sS'discount'
p6876
I1800
sS'corp'
p6877
I923
sS'permitted'
p6878
I3339
sS'chapter'
p6879
I2610
sS'plunging'
p6880
I4867
sS'dinner'
p6881
I4868
sS'plus'
p6882
I2619
sS'efforts'
p6883
I1367
sS'curry'
p6884
I1368
sS'duke'
p6885
I4869
sS'presence'
p6886
I1801
sS'civil'
p6887
I4870
sS'accommodate'
p6888
I3340
sS'unfocused'
p6889
I4871
sS'class'
p6890
I1226
sS'virgin'
p6891
I7364
sS'questionable'
p6892
I3341
sS'head'
p6893
I1010
sS'attempted'
p6894
I4873
sS'differences'
p6895
I1802
sS'*-42'
p6896
I4874
sS'*-41'
p6897
I4875
sS'*-40'
p6898
I4937
sS'*-47'
p6899
I4876
sS'*-46'
p6900
I4877
sS'*-45'
p6901
I4938
sS'*-44'
p6902
I4939
sS'*-49'
p6903
I4878
sS'removed'
p6904
I4941
sS'bids'
p6905
I1116
sS'clubs'
p6906
I7719
sS'wealthy'
p6907
I6967
sS'check'
p6908
I3343
sS'1.8500'
p6909
I3344
sS'nl'
p6910
I841
sS'no'
p6911
I101
sS'when'
p6912
I104
sS'proceedings'
p6913
I2611
sS'alleghany'
p6914
I4879
sS'papers'
p6915
I4880
sS'landor'
p6916
I4326
sS'picture'
p6917
I2152
sS'subtraction'
p6918
I7629
sS'transamerica'
p6919
I7701
sS'22\\/32'
p6920
I3346
sS'younger'
p6921
I4881
sS'longer'
p6922
I1117
sS'withhold'
p6923
I4882
sS'remarked'
p6924
I4883
sS'serious'
p6925
I1011
sS'alternatives'
p6926
I2065
sS'focus'
p6927
I2128
sS'1948'
p6928
I4884
sS'environment'
p6929
I1369
sS'charge'
p6930
I391
sS'advantage'
p6931
I1370
sS'congregation'
p6932
I4885
sS'kodansha'
p6933
I4886
sS'level'
p6934
I596
sS'philippines'
p6935
I1803
sS'hawaii'
p6936
I4887
sS'standards'
p6937
I1227
sS'yale'
p6938
I5029
sS'quick'
p6939
I3347
sS'money-market'
p6940
I4888
sS'des'
p6941
I912
sS'says'
p6942
I55
sS'two-week'
p6943
I4890
sS'trend'
p6944
I1544
sS'mich.'
p6945
I2129
sS'b-1b'
p6946
I4891
sS'constitution'
p6947
I924
sS'debate'
p6948
I2195
sS'goes'
p6949
I925
sS'100-megabyte'
p6950
I5746
sS'water'
p6951
I1804
sS'evident'
p6952
I6486
sS'baseball'
p6953
I4892
sS'groups'
p6954
I1371
sS'crippled'
p6955
I4893
sS'healthy'
p6956
I2613
sS'guilty'
p6957
I3348
sS'newcomer'
p6958
I7903
sS'mccormick'
p6959
I3349
sS'soybeans'
p6960
I4894
sS'chaired'
p6961
I4895
sS'marder'
p6962
I7711
sS'crisis'
p6963
I3350
sS'russell'
p6964
I3879
sS'third-quarter'
p6965
I1118
sS'sports'
p6966
I3351
sS'upheld'
p6967
I2615
sS'memory'
p6968
I2616
sS'australian'
p6969
I4896
sS'today'
p6970
I395
sS'editorially'
p6971
I4897
sS'combo'
p6972
I4898
sS'employee'
p6973
I1805
sS'arighi'
p6974
I4899
sS'cases'
p6975
I474
sS'autumn'
p6976
I4189
sS'local'
p6977
I478
sS'districts'
p6978
I2618
sS'ms.'
p6979
I842
sS'kingsbridge'
p6980
I6642
sS'numbers'
p6981
I2069
sS'figure'
p6982
I1545
sS'dinkins'
p6983
I1025
sS'dropped'
p6984
I1012
sS'provoke'
p6985
I4701
sS'requirements'
p6986
I1228
sS'secured'
p6987
I3352
sS'minivans'
p6988
I2131
sS'1'
I323
sS'fourth'
p6989
I926
sS'subsidiaries'
p6990
I2620
sS'!'
I2013
sS'information'
p6991
I360
sS'roukema'
p6992
I4903
sS'renovation'
p6993
I5122
sS'classroom'
p6994
I2132
sS'branches'
p6995
I4904
sS'succeeded'
p6996
I3724
sS'gerard'
p6997
I4905
sS'nine-member'
p6998
I4906
sS'refund'
p6999
I1230
sS'exclusive'
p7000
I2621
sS'hammerschmidt'
p7001
I4908
sS'mainly'
p7002
I2622
sS'128'
p7003
I7720
sS'in-store'
p7004
I4909
sS'worship'
p7005
I4910
sS'stock-index'
p7006
I531
sS'chips'
p7007
I2197
sS'wallach'
p7008
I7212
sS'offers'
p7009
I1546
sS'koito'
p7010
I3354
sS'conversations'
p7011
I4912
sS'evolution'
p7012
I6239
sS'qualified'
p7013
I2133
sS'feature'
p7014
I5254
sS'term'
p7015
I1372
sS'name'
p7016
I1578
sS'asbestos-related'
p7017
I3355
sS'plant'
p7018
I538
sS'distributor'
p7019
I4914
sS'macmillan\\/mcgraw'
p7020
I2135
sS'intended'
p7021
I2626
sS'factors'
p7022
I1547
sS'profit'
p7023
I161
sS'oklahoma'
p7024
I4915
sS'factory'
p7025
I781
sS'attracted'
p7026
I4916
sS'kent'
p7027
I1548
sS'theory'
p7028
I4917
sS'albuquerque'
p7029
I4918
sS'glendale'
p7030
I7531
sS'software'
p7031
I814
sS'impose'
p7032
I3357
sS'motion'
p7033
I2627
sS'turn'
p7034
I1807
sS'place'
p7035
I565
sS'swing'
p7036
I4919
sS'discontinued'
p7037
I4920
sS'suspend'
p7038
I3359
sS'merrill'
p7039
I2136
sS'surviving'
p7040
I3360
sS'revenue'
p7041
I1013
sS'coming'
p7042
I718
sS'symbolic'
p7043
I5287
sS'superdot'
p7044
I4457
sS'george'
p7045
I2137
sS'millions'
p7046
I2138
sS'given'
p7047
I943
sS'necessarily'
p7048
I3527
sS'district'
p7049
I1014
sS'trillion'
p7050
I3362
sS'plastic'
p7051
I3363
sS'returns'
p7052
I927
sS'lobbyists'
p7053
I4923
sS'white'
p7054
I635
sS'gives'
p7055
I1015
sS'wrongdoing'
p7056
I1808
sS'releases'
p7057
I4924
sS'season'
p7058
I3364
sS'alan'
p7059
I2732
sS'released'
p7060
I2628
sS'copy'
p7061
I3365
sS'holder'
p7062
I3552
sS'specify'
p7063
I3616
sS'population'
p7064
I2629
sS'wide'
p7065
I2630
sS'require'
p7066
I1119
sS'spokeswoman'
p7067
I1809
sS'officials'
p7068
I198
sS'change-ringing'
p7069
I4925
sS'and'
p7070
I10
sS'lowest'
p7071
I3434
sS'ana'
p7072
I4927
sS'ann'
p7073
I4928
sS'sells'
p7074
I1549
sS'any'
p7075
I94
sS'marathon'
p7076
I5506
sS'conversion'
p7077
I3366
sS'ideas'
p7078
I2631
sS'phillips'
p7079
I4929
sS'emphasis'
p7080
I4930
sS'sure'
p7081
I1810
sS'falls'
p7082
I4931
sS'*-68'
p7083
I4932
sS'2\\/32'
p7084
I3367
sS'freshman'
p7085
I6291
sS'*-60'
p7086
I4933
sS'*-63'
p7087
I4934
sS'*-62'
p7088
I4935
sS'*-64'
p7089
I3368
sS'*-67'
p7090
I4936
sS'considered'
p7091
I1373
sS'later'
p7092
I946
sS'illuminating'
p7093
I3342
sS'trafficking'
p7094
I5505
sS'hear'
p7095
I2632
sS'senior'
p7096
I532
sS'quantity'
p7097
I3369
sS'allegations'
p7098
I3606
sS'spaces'
p7099
I4940
sS'gulf'
p7100
I636
sS'state'
p7101
I209
sS'crime'
p7102
I2140
sS'wood'
p7103
I4942
sS'cautioned'
p7104
I4943
sS'viewpoint'
p7105
I3371
sS'boilers'
p7106
I5572
sS'regarding'
p7107
I2141
sS'closed-end'
p7108
I3372
sS'embassy'
p7109
I1902
sS'predicted'
p7110
I3373
sS'discussing'
p7111
I3374
sS'rms'
p7112
I3375
sS'imposing'
p7113
I7343
sS'violated'
p7114
I4944
sS'signs'
p7115
I1903
sS'college'
p7116
I1374
sS'slashing'
p7117
I5647
sS'parking'
p7118
I4946
sS'1929'
p7119
I3376
sS'fails'
p7120
I3377
sS'mortgage'
p7121
I1811
sS'farmers'
p7122
I684
sS'ways'
p7123
I1375
sS'review'
p7124
I843
sS'commitments'
p7125
I1376
sS'outside'
p7126
I1016
sS'surfaced'
p7127
I4947
sS'*t*-160'
p7128
I7017
sS'8.45'
p7129
I4948
sS'directionless'
p7130
I5938
sS'emotional'
p7131
I6873
sS'harshly'
p7132
I4949
sS'cities'
p7133
I2143
sS'come'
p7134
I496
sS'reaction'
p7135
I1812
sS'acquiring'
p7136
I4950
sS'subskills'
p7137
I4951
sS'region'
p7138
I928
sS'quiet'
p7139
I4952
sS'contract'
p7140
I262
sS'duty'
p7141
I4953
sS'color'
p7142
I4954
sS'colony'
p7143
I4955
sS'period'
p7144
I392
sS'pop'
p7145
I1616
sS'mariotta'
p7146
I2224
sS'60'
p7147
I929
sS'61'
p7148
I2633
sS'62'
p7149
I1550
sS'63'
p7150
I2145
sS'64'
p7151
I3378
sS'65'
p7152
I1551
sS'approval'
p7153
I1377
sS'68'
p7154
I4956
sS'69'
p7155
I4957
sS'100-share'
p7156
I4958
sS'two-year'
p7157
I1813
sS'turkey'
p7158
I4959
sS'winiarski'
p7159
I4592
sS'computing'
p7160
I4960
sS'declining'
p7161
I2200
sS'hardly'
p7162
I2634
sS'500'
p7163
I268
sS'direction'
p7164
I2635
sS'blessing'
p7165
I4961
sS'andrew'
p7166
I4962
sS'tiger'
p7167
I5841
sS'colo.'
p7168
I2146
sS'minister'
p7169
I1552
sS'careful'
p7170
I4291
sS'spirit'
p7171
I2262
sS'paying'
p7172
I796
sS'mount'
p7173
I6430
sS'cash'
p7174
I245
sS'arnold'
p7175
I4913
sS'cast'
p7176
I3379
sS'shops'
p7177
I3380
sS'coupled'
p7178
I3381
sS'telephone'
p7179
I724
sS'refinery'
p7180
I5890
sS'good'
p7181
I292
sS'perhaps'
p7182
I1026
sS'author'
p7183
I4963
sS'rope-sight'
p7184
I5915
sS'bowl'
p7185
I5920
sS'events'
p7186
I3382
sS'week'
p7187
I186
sS'69-point'
p7188
I7753
sS'refusal'
p7189
I4965
sS'barges'
p7190
I3383
sS'director'
p7191
I306
sS'persons'
p7192
I2636
sS'first-half'
p7193
I4966
sS'changing'
p7194
I3384
sS'vowed'
p7195
I3727
sS'relies'
p7196
I4967
sS'estimation'
p7197
I7755
sS'pennsylvania'
p7198
I2147
sS'without'
p7199
I313
sS'relief'
p7200
I4968
sS'model'
p7201
I1624
sS'researchers'
p7202
I930
sS'justify'
p7203
I4969
sS'tip'
p7204
I4970
sS'unconstitutional'
p7205
I1380
sS'actions'
p7206
I2148
sS'kill'
p7207
I3385
sS'polish'
p7208
I3386
sS'3.375'
p7209
I4971
sS'baldwin'
p7210
I2637
sS'blow'
p7211
I4972
sS'announcement'
p7212
I1815
sS'rose'
p7213
I169
sS'seems'
p7214
I1553
sS'except'
p7215
I1381
sS'samples'
p7216
I2638
sS'ross'
p7217
I2149
sS'kingdom'
p7218
I2725
sS'virginia'
p7219
I3387
sS'confines'
p7220
I6072
sS'inflation'
p7221
I1816
sS'confined'
p7222
I4973
sS'accepted'
p7223
I2150
sS'furniture'
p7224
I4974
sS'patrick'
p7225
I4975
sS'nissan'
p7226
I2639
sS'stronach'
p7227
I2151
sS'tower'
p7228
I1554
sS'reduced'
p7229
I1382
sS'1989'
p7230
I269
sS'competition'
p7231
I1043
sS'industry-supported'
p7232
I6150
sS'provided'
p7233
I1231
sS'caribbean'
p7234
I3388
sS'swaps'
p7235
I3791
sS'legal'
p7236
I844
sS'resonate'
p7237
I6179
sS'provides'
p7238
I1384
sS'45,000'
p7239
I3389
sS'porter'
p7240
I2640
sS'pressman'
p7241
I6863
sS'earlier'
p7242
I207
sS'on'
p7243
I25
sS'subdued'
p7244
I4977
sS'of'
p7245
I6
sS'discussed'
p7246
I2395
sS'stand'
p7247
I1232
sS'oy'
p7248
I4978
sS'gregory'
p7249
I4979
sS'or'
p7250
I47
sS'tribe'
p7251
I4980
sS'vicar'
p7252
I2153
sS'instruments'
p7253
I1555
sS'accounts'
p7254
I1233
sS'determine'
p7255
I2641
sS'gary'
p7256
I3390
sS'speculated'
p7257
I2642
sS'there'
p7258
I97
sS'hazards'
p7259
I2643
sS'alleged'
p7260
I845
sS'strict'
p7261
I4981
sS'valley'
p7262
I1556
sS'municipalities'
p7263
I2644
sS'750'
p7264
I4982
sS'regard'
p7265
I4983
sS'idea'
p7266
I996
sS'ganes'
p7267
I2645
sS'faster'
p7268
I3391
sS'triple-a'
p7269
I4984
sS'chaplin'
p7270
I2646
sS'toilet'
p7271
I7221
sS'taylor'
p7272
I4985
sS'*t*-90'
p7273
I6402
sS'*t*-92'
p7274
I4986
sS'minneapolis'
p7275
I2154
sS'cbs'
p7276
I4987
sS'britain'
p7277
I1557
sS'politics'
p7278
I4988
sS'spends'
p7279
I4989
sS'4.4'
p7280
I2647
sS'4.7'
p7281
I4990
sS'4.1'
p7282
I4991
sS'4.3'
p7283
I4992
sS'4.2'
p7284
I4993
sS'deserve'
p7285
I3392
sS'compel'
p7286
I6439
sS'4.8'
p7287
I4994
sS'rubber'
p7288
I4995
sS'5'
I598
sS'requested'
p7289
I3393
sS'separate'
p7290
I1817
sS'symbol'
p7291
I3394
sS'includes'
p7292
I1017
sS'bullets'
p7293
I3395
sS'included'
p7294
I783
sS'creditor'
p7295
I4533
sS'stocks'
p7296
I156
sS'missed'
p7297
I6697
sS'bilateral'
p7298
I2648
sS'calls'
p7299
I1818
sS'wife'
p7300
I4996
sS'invest'
p7301
I4997
sS'12-point'
p7302
I3396
sS'directors'
p7303
I1558
sS'missouri'
p7304
I3397
sS'all'
p7305
I87
sS'chinese'
p7306
I1234
sS'lack'
p7307
I1559
sS'5\\/8'
p7308
I931
sS'executing'
p7309
I3398
sS'follow'
p7310
I3399
sS'disk'
p7311
I2901
sS'decisions'
p7312
I3400
sS'synthetic'
p7313
I4998
sS'apartment'
p7314
I4999
sS'1.76'
p7315
I5000
sS'thursday'
p7316
I1560
sS'write-off'
p7317
I6871
sS'program'
p7318
I77
sS'lawmakers'
p7319
I2649
sS'defuse'
p7320
I6110
sS'activities'
p7321
I2650
sS'fax'
p7322
I3939
sS'woman'
p7323
I1235
sS'worse'
p7324
I3401
sS'far'
p7325
I314
sS'cotran'
p7326
I6591
sS'fat'
p7327
I5001
sS'worst'
p7328
I2651
sS'sony'
p7329
I1120
sS'ticket'
p7330
I2652
sS'treating'
p7331
I3402
sS'list'
p7332
I1236
sS'prolonged'
p7333
I5002
sS'grandfather'
p7334
I5003
sS'ten'
p7335
I5484
sS'*-117'
p7336
I5344
sS'reins'
p7337
I6665
sS'*-111'
p7338
I6670
sS'rate'
p7339
I215
sS'design'
p7340
I1820
sS'nbc'
p7341
I5004
sS'what'
p7342
I162
sS'imported'
p7343
I2653
sS'sun'
p7344
I3968
sS'brief'
p7345
I2654
sS'version'
p7346
I2156
sS'supposedly'
p7347
I5005
sS'thrift'
p7348
I846
sS'double-digit'
p7349
I5006
sS'options'
p7350
I1237
sS'cataract'
p7351
I3403
sS'suddenly'
p7352
I5007
sS'texts'
p7353
I5008
sS'appliances'
p7354
I2158
sS'fla.'
p7355
I1238
sS'oak'
p7356
I7801
sS'new-home'
p7357
I5009
sS'markets'
p7358
I188
sS'flat'
p7359
I1239
sS'israel'
p7360
I5010
sS'knows'
p7361
I2344
sS'operators'
p7362
I5011
sS'domination'
p7363
I5012
sS'basically'
p7364
I2949
sS'known'
p7365
I968
sS'commanded'
p7366
I7100
sS'spenders'
p7367
I5013
sS'5.1'
p7368
I6939
sS'5.4'
p7369
I3698
sS'5.5'
p7370
I4060
sS'rather'
p7371
I705
sS'nonexecutive'
p7372
I2159
sS'occasionally'
p7373
I5014
sS'stemming'
p7374
I3404
sS'explains'
p7375
I2655
sS'barnum'
p7376
I3405
sS'reflect'
p7377
I2160
sS'superpremiums'
p7378
I5015
sS'emergencies'
p7379
I6879
sS'short'
p7380
I784
sS'susan'
p7381
I5016
sS'departure'
p7382
I847
sS'intellectual-property'
p7383
I2161
sS'turnover'
p7384
I5017
sS'*rnr*-2'
p7385
I2162
sS'*rnr*-1'
p7386
I418
sS'*rnr*-4'
p7387
I4088
sS'september'
p7388
I246
sS'developed'
p7389
I2163
sS'market-makers'
p7390
I5018
sS'pretext'
p7391
I4094
sS'avenue'
p7392
I5019
sS'93,000'
p7393
I6882
sS'style'
p7394
I3406
sS'intertitles'
p7395
I7820
sS'resort'
p7396
I5020
sS'interleukin-3'
p7397
I3407
sS'stephen'
p7398
I1822
sS'argentina'
p7399
I4104
sS'might'
p7400
I232
sS'argentine'
p7401
I5022
sS'somebody'
p7402
I4127
sS'bancorp'
p7403
I3408
sS'bigger'
p7404
I5023
sS'overused'
p7405
I7128
sS'inherent'
p7406
I5024
sS'used'
p7407
I319
sS'expect'
p7408
I1823
sS'loops'
p7409
I5025
sS'alcohol'
p7410
I1824
sS'health'
p7411
I334
sS'hill'
p7412
I2656
sS'cost-cutting'
p7413
I5026
sS'exodus'
p7414
I5027
sS'roofs'
p7415
I5028
sS'friday'
p7416
I4153
sS'17-year-old'
p7417
I5843
sS'execute'
p7418
I3409
sS'teach'
p7419
I5030
sS'guy'
p7420
I6493
sS'torrington'
p7421
I5031
sS'consequence'
p7422
I5032
sS'fallen'
p7423
I1825
sS'bushel'
p7424
I3410
sS'feed'
p7425
I5033
sS'feel'
p7426
I1018
sS'feet'
p7427
I3411
sS'11.95'
p7428
I7305
sS'notify'
p7429
I7533
sS'fees'
p7430
I533
sS'slower'
p7431
I2657
sS'blanc'
p7432
I7319
sS'story'
p7433
I1561
sS'automobile'
p7434
I4181
sS'financed'
p7435
I2658
sS'180'
p7436
I2526
sS'passed'
p7437
I1563
sS'recovered'
p7438
I5034
sS'option'
p7439
I2165
sS'hotel'
p7440
I3413
sS'optical'
p7441
I5035
sS'vindication'
p7442
I5036
sS'kind'
p7443
I848
sS'double'
p7444
I5037
sS'instruction'
p7445
I5038
sS'coleco'
p7446
I3415
sS'architect'
p7447
I5039
sS'risks'
p7448
I1020
sS'cleaner'
p7449
I5040
sS'obstacles'
p7450
I5041
sS'outstanding'
p7451
I599
sS'imports'
p7452
I932
sS'ft-se'
p7453
I3416
sS'booklets'
p7454
I2166
sS'alike'
p7455
I7433
sS'wilson'
p7456
I5206
sS'chairman'
p7457
I164
sS'finding'
p7458
I1826
sS'donor'
p7459
I5042
sS'added'
p7460
I263
sS'electric'
p7461
I1385
sS'warnings'
p7462
I5043
sS'goldman'
p7463
I1827
sS'measures'
p7464
I1564
sS'reach'
p7465
I2167
sS'77'
p7466
I4222
sS'cigarette'
p7467
I2659
sS'75'
p7468
I1386
sS'shareholder'
p7469
I1021
sS'72'
p7470
I5044
sS'71'
p7471
I3417
sS'70'
p7472
I849
sS'nothing'
p7473
I1240
sS'measured'
p7474
I5045
sS'soared'
p7475
I1490
sS'stands'
p7476
I2169
sS'dealers'
p7477
I475
sS'traditional'
p7478
I1121
sS'institutions'
p7479
I637
sS'lying'
p7480
I2170
sS'painewebber'
p7481
I2171
sS'penalty'
p7482
I3418
sS'his'
p7483
I81
sS'hit'
p7484
I1241
sS'gains'
p7485
I685
sS'compiled'
p7486
I5047
sS'mortgage-backed'
p7487
I5048
sS'b'
I4293
sS'5,000'
p7488
I1122
sS'fastest'
p7489
I7615
sS'shared'
p7490
I6896
sS'him'
p7491
I933
sS'activity'
p7492
I785
sS'wrote'
p7493
I1565
sS'seven-day'
p7494
I3419
sS'art'
p7495
I2660
sS'collateral'
p7496
I6897
sS'intelligence'
p7497
I5050
sS'449.04'
p7498
I7806
sS'2.8'
p7499
I5052
sS'are'
p7500
I37
sS'2.3'
p7501
I3420
sS'2.2'
p7502
I3421
sS'2.1'
p7503
I3422
sS'2.7'
p7504
I5053
sS'2.6'
p7505
I5054
sS'declined'
p7506
I584
sS'2.4'
p7507
I5055
sS'threats'
p7508
I4283
sS'unions'
p7509
I5056
sS'various'
p7510
I1828
sS'downturn'
p7511
I3061
sS'numerous'
p7512
I1829
sS'corruption'
p7513
I5057
sS'korea'
p7514
I658
sS'recently'
p7515
I419
sS'creating'
p7516
I2663
sS'initially'
p7517
I2015
sS'sold'
p7518
I264
sS'attention'
p7519
I1387
sS'succeed'
p7520
I1830
sS'opposition'
p7521
I5058
sS'became'
p7522
I934
sS'reasons'
p7523
I2172
sS'sweet'
p7524
I5059
sS'patricia'
p7525
I7811
sS'regulated'
p7526
I3423
sS'startling'
p7527
I5061
sS'political'
p7528
I600
sS'due'
p7529
I270
sS'strategy'
p7530
I1562
sS'whom'
p7531
I1726
sS'reduction'
p7532
I1388
sS'chandler'
p7533
I5062
sS'73'
p7534
I7484
sS'transferring'
p7535
I5063
sS'brokers'
p7536
I1831
sS'demand'
p7537
I393
sS'plants'
p7538
I1123
sS'georgia'
p7539
I534
sS'indefinitely'
p7540
I4345
sS'expressly'
p7541
I7897
sS'*-132'
p7542
I7940
sS'*-133'
p7543
I6375
sS'p.'
p7544
I2173
sS'engineers'
p7545
I2664
sS'19.6'
p7546
I5065
sS'disappointing'
p7547
I3425
sS'copyrights'
p7548
I6754
sS'school-board'
p7549
I7434
sS'ample'
p7550
I4313
sS'james'
p7551
I513
sS'widely'
p7552
I1389
sS'9'
I638
sS'daughters'
p7553
I5067
sS'higher'
p7554
I193
sS'negotiate'
p7555
I3426
sS'flows'
p7556
I2665
sS'moving'
p7557
I2455
sS'lower'
p7558
I394
sS'analysis'
p7559
I5068
sS'260'
p7560
I6448
sS'machinery'
p7561
I2175
sS'polled'
p7562
I5069
sS'competitive'
p7563
I3427
sS'questions'
p7564
I639
sS'sherwood'
p7565
I2815
sS'profitable'
p7566
I2176
sS'loading'
p7567
I7193
sS'*t*-254'
p7568
I6783
sS'workers'
p7569
I566
sS'contractor'
p7570
I3429
sS'exhibition'
p7571
I5070
sS'violations'
p7572
I726
sS'shovels'
p7573
I5071
sS'profitably'
p7574
I5072
sS'complaint'
p7575
I2947
sS'moody'
p7576
I727
sS'skeptical'
p7577
I3430
sS'nameplate'
p7578
I5073
sS'separately'
p7579
I2666
sS'arthur'
p7580
I3431
sS'3.7'
p7581
I3432
sS'3.5'
p7582
I5074
sS'3.2'
p7583
I2667
sS'3.3'
p7584
I3433
sS'3.1'
p7585
I2177
sS'3.8'
p7586
I2668
sS'3.9'
p7587
I5075
sS'rarely'
p7588
I6912
sS'seller'
p7589
I5076
sS'anne'
p7590
I5077
sS'martin'
p7591
I1124
sS'refused'
p7592
I1566
sS'500-stock'
p7593
I3435
sS'intense'
p7594
I2178
sS'handled'
p7595
I4922
sS'cautious'
p7596
I4470
sS'range'
p7597
I2179
sS'drifted'
p7598
I5078
sS'inventories'
p7599
I2180
sS'tenth'
p7600
I7041
sS'62%-owned'
p7601
I4500
sS'fast'
p7602
I3166
sS'rowe'
p7603
I2669
sS'sections'
p7604
I5080
sS'plunge'
p7605
I2181
sS'uzi-model'
p7606
I7338
sS'cloth'
p7607
I5081
sS'filed'
p7608
I787
sS'crane'
p7609
I3436
sS'raising'
p7610
I1391
sS'consist'
p7611
I3437
sS'capitalized'
p7612
I5082
sS'crocidolite'
p7613
I2130
sS'participants'
p7614
I2075
sS'export'
p7615
I941
sS'called'
p7616
I536
sS'associated'
p7617
I3438
sS'warning'
p7618
I2182
sS'rally'
p7619
I1125
sS'steeper'
p7620
I5083
sS'three-month'
p7621
I3733
sS'income'
p7622
I251
sS'backe'
p7623
I3439
sS'nice'
p7624
I5085
sS'users'
p7625
I5086
sS'problems'
p7626
I454
sS'helping'
p7627
I2670
sS'meaning'
p7628
I3188
sS'equus'
p7629
I3440
sS'vice'
p7630
I233
sS'nasd'
p7631
I1567
sS'once'
p7632
I601
sS'severable'
p7633
I5087
sS'issued'
p7634
I1023
sS'resistance'
p7635
I1832
sS'issues'
p7636
I271
sS'simon'
p7637
I5088
sS'disposal'
p7638
I2671
sS'stable'
p7639
I2672
sS'breach'
p7640
I5089
sS'include'
p7641
I852
sS'dramatically'
p7642
I5090
sS'american-made'
p7643
I6918
sS'spoon'
p7644
I3442
sS'*-95'
p7645
I7761
sS'645,000'
p7646
I5092
sS'notes'
p7647
I307
sS'aslacton'
p7648
I3443
sS'deals'
p7649
I1833
sS'noted'
p7650
I455
sS'concluded'
p7651
I2183
sS'smaller'
p7652
I1392
sS'fold'
p7653
I5093
sS'acid'
p7654
I2184
sS'makers'
p7655
I936
sS'waiting'
p7656
I5095
sS'capital'
p7657
I220
sS'oshkosh'
p7658
I3444
sS'n.j'
p7659
I2185
sS'degree'
p7660
I5096
sS'pushing'
p7661
I5097
sS'underwood'
p7662
I4620
sS'desired'
p7663
I5098
sS'separation'
p7664
I3446
sS'latour'
p7665
I5099
sS'skyrocketed'
p7666
I5100
sS'larger'
p7667
I1568
sS'leaving'
p7668
I3447
sS'suggests'
p7669
I1569
sS'u.k.'
p7670
I853
sS'stockholders'
p7671
I2282
sS'apple'
p7672
I2186
sS'reupke'
p7673
I1834
sS'deputy'
p7674
I1835
sS'rechargeable'
p7675
I7376
sS'aboard'
p7676
I5627
sS'unhappy'
p7677
I4611
sS'motor'
p7678
I1393
sS'apply'
p7679
I2674
sS'fed'
p7680
I903
sS'fee'
p7681
I2675
sS'lottery'
p7682
I5102
sS'&'
I119
sS'142.85'
p7683
I5103
sS'few'
p7684
I316
sS'examination'
p7685
I2676
sS'december'
p7686
I1053
sS'usx'
p7687
I476
sS'sort'
p7688
I2678
sS'parliament'
p7689
I1836
sS'factor'
p7690
I1626
sS'women'
p7691
I686
sS'us$'
p7692
I5104
sS'performed'
p7693
I2840
sS'0.9'
p7694
I5105
sS'0.1'
p7695
I3448
sS'tax'
p7696
I729
sS'something'
p7697
I854
sS'serial'
p7698
I3449
sS'rape'
p7699
I2187
sS'sir'
p7700
I2679
sS'samnick'
p7701
I4902
sS'sit'
p7702
I5107
sS'six'
p7703
I376
sS'occur'
p7704
I1972
sS'traders'
p7705
I211
sS'instead'
p7706
I1024
sS'struggled'
p7707
I6543
sS'panic'
p7708
I3971
sS'47.6'
p7709
I3269
sS'younkers'
p7710
I1837
sS'administrator'
p7711
I2680
sS'attend'
p7712
I3451
sS'abuse'
p7713
I2188
sS'r.p.'
p7714
I5108
sS'light'
p7715
I730
sS'*-151'
p7716
I5443
sS'tenure'
p7717
I4704
sS'statutory'
p7718
I6531
sS'130'
p7719
I1838
sS'boosts'
p7720
I3452
sS'write'
p7721
I6934
sS'ships'
p7722
I1839
sS'choose'
p7723
I2189
sS'orange'
p7724
I2190
sS'covered'
p7725
I1840
sS'pending'
p7726
I2191
sS'crash'
p7727
I937
sS'practice'
p7728
I1126
sS'republican'
p7729
I5110
sS'investor'
p7730
I317
sS'successor'
p7731
I1570
sS'articles'
p7732
I5111
sS'speaks'
p7733
I5112
sS'eased'
p7734
I3453
sS'promise'
p7735
I2700
sS'bills'
p7736
I568
sS'buick'
p7737
I603
sS'related'
p7738
I1394
sS'88'
p7739
I5114
sS'89'
p7740
I5115
sS'remove'
p7741
I3455
sS'our'
p7742
I420
sS'80'
p7743
I1571
sS'out'
p7744
I124
sS'category'
p7745
I5116
sS'tabloid'
p7746
I5117
sS'sentiment'
p7747
I5118
sS'settlement'
p7748
I1819
sS'integrated'
p7749
I2681
sS'thrifts'
p7750
I2682
sS'ginsberg'
p7751
I7008
sS'promptly'
p7752
I3456
sS'vacations'
p7753
I3700
sS'dumpster'
p7754
I5119
sS'conflicts'
p7755
I5120
sS'feasible'
p7756
I5121
sS'184'
p7757
I5535
sS'ltd'
p7758
I1794
sS'proposing'
p7759
I2683
sS'drastic'
p7760
I6943
sS'preapproved'
p7761
I7887
sS'eighth'
p7762
I6277
sS'priority'
p7763
I3458
sS'their'
p7764
I64
sS'instituted'
p7765
I5123
sS'slides'
p7766
I5124
sS'reflecting'
p7767
I2684
sS'low-ability'
p7768
I3459
sS'july'
p7769
I1572
sS'institution'
p7770
I2192
sS'commodity'
p7771
I1229
sS'limiting'
p7772
I5125
sS'patients'
p7773
I3460
sS'creditors'
p7774
I1841
sS'1.5'
p7775
I1842
sS'1.6'
p7776
I3461
sS'1.7'
p7777
I5126
sS'1.1'
p7778
I2193
sS'1.2'
p7779
I3462
sS'ringer'
p7780
I2685
sS'blip'
p7781
I5127
sS'linked'
p7782
I5129
sS'florio'
p7783
I3331
sS'angle'
p7784
I5130
sS'agency'
p7785
I477
sS'which'
p7786
I54
sS'funds'
p7787
I148
sS'who'
p7788
I66
sS'why'
p7789
I938
sS'statute'
p7790
I3465
sS'fang'
p7791
I4619
sS'fujitsu'
p7792
I855
sS'8.55'
p7793
I7154
sS'guinea'
p7794
I2824
sS'n.c.'
p7795
I3466
sS'agreed'
p7796
I640
sS'democrats'
p7797
I2688
sS'dorothy'
p7798
I5131
sS'fear'
p7799
I2194
sS'eyes'
p7800
I4382
sS'pleased'
p7801
I2612
sS'litigation'
p7802
I2196
sS'scammers'
p7803
I3467
sS'candidates'
p7804
I1396
sS'indeed'
p7805
I1295
sS'thousands'
p7806
I2617
sS'sued'
p7807
I4901
sS'ralston'
p7808
I1843
sS'ones'
p7809
I1397
sS'words'
p7810
I3468
sS'tactics'
p7811
I7605
sS'spur'
p7812
I4911
sS'champagne'
p7813
I3230
sS'belts'
p7814
I1844
sS'view'
p7815
I939
sS'available'
p7816
I774
sS'requirement'
p7817
I2689
sS'acquired'
p7818
I641
sS'unfairly'
p7819
I2690
sS'closer'
p7820
I3469
sS'-rcb-'
p7821
I940
sS'favor'
p7822
I3470
sS'closed'
p7823
I361
sS'crude'
p7824
I2198
sS'limit'
p7825
I489
sS'bought'
p7826
I1243
sS'ability'
p7827
I1128
sS'opening'
p7828
I2199
sS'agencies'
p7829
I2693
sS'job'
p7830
I731
sS'takeover'
p7831
I788
sS'joe'
p7832
I5134
sS'jon'
p7833
I5433
sS'april'
p7834
I856
sS'grain'
p7835
I732
sS'auctions'
p7836
I2201
sS'bronx'
p7837
I2694
sS'wall'
p7838
I308
sS'walk'
p7839
I3471
sS'packaging'
p7840
I1573
sS'subscribe'
p7841
I5136
sS'respect'
p7842
I3472
sS'narrowed'
p7843
I5137
sS'withdrawn'
p7844
I2202
sS'trays'
p7845
I5138
sS'broadcasts'
p7846
I4063
sS'legislature'
p7847
I6030
sS'nickel'
p7848
I3473
sS'scrutiny'
p7849
I5139
sS'improved'
p7850
I1574
sS'present'
p7851
I5140
sS'abandoned'
p7852
I3474
sS'unlike'
p7853
I1845
sS'restaurant'
p7854
I5141
sS'meridian'
p7855
I3475
sS'will'
p7856
I48
sS'wild'
p7857
I2204
sS'offending'
p7858
I7908
sS'ringing'
p7859
I2205
sS'thus'
p7860
I1821
sS'gunship'
p7861
I5142
sS'stadiums'
p7862
I3816
sS'vintage'
p7863
I5143
sS'1.65'
p7864
I3476
sS'member'
p7865
I1129
sS'retailing'
p7866
I3477
sS'improves'
p7867
I6032
sS'largest'
p7868
I377
sS'units'
p7869
I1027
sS'gets'
p7870
I3478
sS'difficult'
p7871
I1846
sS'premiere'
p7872
I3479
sS'disagree'
p7873
I5145
sS'student'
p7874
I1130
sS'collar'
p7875
I2696
sS'whole'
p7876
I5146
sS'fighting'
p7877
I5147
sS'english'
p7878
I1847
sS'breaker'
p7879
I1848
sS'inc.'
p7880
I106
sS'excessive'
p7881
I5148
sS'heavily'
p7882
I1575
sS'gyrations'
p7883
I1849
sS'slippage'
p7884
I5830
sS'obtain'
p7885
I3480
sS'rapid'
p7886
I5149
sS'supply'
p7887
I2695
sS'smith'
p7888
I1850
sS'other'
p7889
I78
sS'attractive'
p7890
I5150
sS'provisions'
p7891
I1851
sS'protesters'
p7892
I5151
sS'know'
p7893
I850
sS'press'
p7894
I1577
sS'helpful'
p7895
I3481
sS'miami'
p7896
I1398
sS'taxpayers'
p7897
I3482
sS'lufkin'
p7898
I2532
sS'exceed'
p7899
I2697
sS'because'
p7900
I83
sS'elevators'
p7901
I1852
sS'scared'
p7902
I5152
sS'junk'
p7903
I396
sS'115'
p7904
I5153
sS'growth'
p7905
I227
sS'111'
p7906
I4405
sS'employment'
p7907
I1579
sS'118'
p7908
I5154
sS'lead'
p7909
I570
sS'mines'
p7910
I5155
sS'*t*-195'
p7911
I6017
sS'leap'
p7912
I2698
sS'york-based'
p7913
I2206
sS'leader'
p7914
I2207
sS'murdered'
p7915
I5156
sS'carried'
p7916
I2699
sS'extension'
p7917
I5157
sS'getting'
p7918
I1244
sS'shipping'
p7919
I3483
sS'surge'
p7920
I2208
sS'carries'
p7921
I3484
sS'carrier'
p7922
I1131
sS'anti-morning-sickness'
p7923
I7381
sS'devouring'
p7924
I7599
sS'own'
p7925
I200
sS'travelers'
p7926
I2209
sS'warrants'
p7927
I2210
sS'a.l.'
p7928
I5158
sS'weather'
p7929
I5159
sS'correll'
p7930
I5113
sS'registration'
p7931
I3454
sS'prompted'
p7932
I2360
sS'hitting'
p7933
I5160
sS'2.50'
p7934
I2701
sS'van'
p7935
I1855
sS'texaco'
p7936
I5161
sS'friends'
p7937
I1486
sS'*'
I13
sS'continental'
p7938
I5162
sS'intention'
p7939
I3485
sS'triggered'
p7940
I2702
sS'u.s.a.'
p7941
I2686
sS'volume'
p7942
I422
sS'counterparts'
p7943
I5164
sS'squeeze'
p7944
I3487
sS'bodner'
p7945
I5165
sS'made'
p7946
I176
sS'va.'
p7947
I5166
sS'whether'
p7948
I456
sS'record'
p7949
I421
sS'below'
p7950
I335
sS'ruling'
p7951
I857
sS'cake'
p7952
I5167
sS'200,000'
p7953
I5168
sS'inadequate'
p7954
I5169
sS'abbot'
p7955
I5170
sS'happen'
p7956
I2039
sS'mutual'
p7957
I2211
sS"'ll"
p7958
I2212
sS'transacting'
p7959
I5172
sS'illinois'
p7960
I2703
sS'book'
p7961
I1399
sS'branch'
p7962
I1580
sS'cutthroat'
p7963
I5173
sS'illegally'
p7964
I5174
sS'june'
p7965
I858
sS'contends'
p7966
I3488
sS'ceos'
p7967
I5175
sS'4.25'
p7968
I5176
sS'incurred'
p7969
I3486
sS'ranks'
p7970
I5177
sS'ideological'
p7971
I5178
s.